LX51 LINKER/LOCATER V4.66.66.0                                                          09/07/2020  22:21:36  PAGE 1


LX51 LINKER/LOCATER V4.66.66.0, INVOKED BY:
E:\KEIL5\C51\BIN\LX51.EXE ..\Output\main.obj, ..\Output\SC_Init.obj, ..\Output\SC_it.obj, ..\Output\EC06_key.obj, ..\Out
>> put\interface.obj, ..\Output\BM8563.obj, ..\Output\NST1001.obj, ..\Output\operation.obj, ..\Output\sc95f8x1x_ddic.obj
>> , ..\Output\sc95f8x1x_gpio.obj, ..\Output\sc95f8x1x_int.obj, ..\Output\sc95f8x1x_option.obj, ..\Output\sc95f8x1x_time
>> r2.obj, ..\Output\sc95f8x1x_iap.obj, ..\Output\STARTUP.obj TO ..\Output\86box_temperature PRINT (..\List\86box_temper
>> ature.map) REMOVEUNUSED CLASSES (CODE (C:0X100), CONST (C:0X100))


CPU MODE:     8051 MODE
MEMORY MODEL: SMALL WITH FLOATING POINT ARITHMETIC


INPUT MODULES INCLUDED:
  ..\Output\main.obj (MAIN)
         COMMENT TYPE 0: C51 V9.56.0.0
  ..\Output\SC_Init.obj (SC_INIT)
         COMMENT TYPE 0: C51 V9.56.0.0
  ..\Output\SC_it.obj (SC_IT)
         COMMENT TYPE 0: C51 V9.56.0.0
  ..\Output\EC06_key.obj (EC06_KEY)
         COMMENT TYPE 0: C51 V9.56.0.0
  ..\Output\interface.obj (INTERFACE)
         COMMENT TYPE 0: C51 V9.56.0.0
  ..\Output\BM8563.obj (BM8563)
         COMMENT TYPE 0: C51 V9.56.0.0
  ..\Output\NST1001.obj (NST1001)
         COMMENT TYPE 0: C51 V9.56.0.0
  ..\Output\operation.obj (OPERATION)
         COMMENT TYPE 0: C51 V9.56.0.0
  ..\Output\sc95f8x1x_ddic.obj (SC95F8X1X_DDIC)
         COMMENT TYPE 0: C51 V9.56.0.0
  ..\Output\sc95f8x1x_gpio.obj (SC95F8X1X_GPIO)
         COMMENT TYPE 0: C51 V9.56.0.0
  ..\Output\sc95f8x1x_int.obj (SC95F8X1X_INT)
         COMMENT TYPE 0: C51 V9.56.0.0
  ..\Output\sc95f8x1x_option.obj (SC95F8X1X_OPTION)
         COMMENT TYPE 0: C51 V9.56.0.0
  ..\Output\sc95f8x1x_timer2.obj (SC95F8X1X_TIMER2)
         COMMENT TYPE 0: C51 V9.56.0.0
  ..\Output\sc95f8x1x_iap.obj (SC95F8X1X_IAP)
         COMMENT TYPE 0: C51 V9.56.0.0
  ..\Output\STARTUP.obj (?C_STARTUP)
         COMMENT TYPE 1: A51 / ASM51 Assembler
  E:\KEIL5\C51\LIB\C51FPS.LIB (?C?FPADD)
         COMMENT TYPE 1: A51 / ASM51 Assembler
  E:\KEIL5\C51\LIB\C51FPS.LIB (?C?FPMUL)
         COMMENT TYPE 1: A51 / ASM51 Assembler
  E:\KEIL5\C51\LIB\C51FPS.LIB (?C?FCAST)
         COMMENT TYPE 1: A51 / ASM51 Assembler
  E:\KEIL5\C51\LIB\C51FPS.LIB (?C?CASTF)
         COMMENT TYPE 1: A51 / ASM51 Assembler
  E:\KEIL5\C51\LIB\C51FPS.LIB (?C?FPGETOPN)
         COMMENT TYPE 1: A51 / ASM51 Assembler
  E:\KEIL5\C51\LIB\C51S.LIB (?C_INIT)
         COMMENT TYPE 1: A51 / ASM51 Assembler
  E:\KEIL5\C51\LIB\C51S.LIB (?C?CLDPTR)
         COMMENT TYPE 1: A51 / ASM51 Assembler
  E:\KEIL5\C51\LIB\C51S.LIB (?C?UIDIV)
         COMMENT TYPE 1: A51 / ASM51 Assembler
  E:\KEIL5\C51\LIB\C51S.LIB (?C?LMUL)
         COMMENT TYPE 1: A51 / ASM51 Assembler
  E:\KEIL5\C51\LIB\C51S.LIB (?C?SLDIV)
         COMMENT TYPE 1: A51 / ASM51 Assembler
  E:\KEIL5\C51\LIB\C51S.LIB (?C?LNEG)
         COMMENT TYPE 1: A51 / ASM51 Assembler
  E:\KEIL5\C51\LIB\C51S.LIB (?C?ULDIV)
LX51 LINKER/LOCATER V4.66.66.0                                                        09/07/2020  22:21:36  PAGE 2


         COMMENT TYPE 1: A51 / ASM51 Assembler


ACTIVE MEMORY CLASSES OF MODULE:  ..\Output\86box_temperature (MAIN)

BASE        START       END         USED      MEMORY CLASS
==========================================================
C:000000H   C:000100H   C:00FFFFH   00178EH   CODE
C:000000H   C:000100H   C:00FFFFH   00008EH   CONST
I:000000H   I:000000H   I:00007FH   000065H   DATA
I:000020H.0 I:000020H.0 I:00002FH.7 000007H.5 BIT
X:000000H   X:000000H   X:00FFFFH   00001EH   XDATA
I:000000H   I:000000H   I:0000FFH   000001H   IDATA


MEMORY MAP OF MODULE:  ..\Output\86box_temperature (MAIN)


START     STOP      LENGTH    ALIGN  RELOC    MEMORY CLASS   SEGMENT NAME
=========================================================================

* * * * * * * * * * *   D A T A   M E M O R Y   * * * * * * * * * * * * *
000000H   000007H   000008H   ---    AT..     DATA           "REG BANK 0"
000008H   00001BH   000014H   BYTE   UNIT     DATA           ?DT?EC06_KEY
00001CH   00001DH   000002H   BYTE   UNIT     DATA           ?DT?BM8563
00001EH.0 00001FH.7 000002H.0 ---    ---      **GAP**
000020H.0 000022H.2 000002H.3 BIT    UNIT     BIT            ?BI?OPERATION
000022H.3 000023H.6 000001H.4 BIT    UNIT     BIT            ?BI?SC_IT
000023H.7 000025H.1 000001H.3 BIT    UNIT     BIT            ?BI?EC06_KEY
000025H.2 000026H.3 000001H.2 BIT    UNIT     BIT            ?BI?INTERFACE
000026H.4 000026H.7 000000H.4 BIT    UNIT     BIT            ?BI?NST1001
000027H.0 000027H.3 000000H.4 BIT    UNIT     BIT            _BIT_GROUP_
000027H.4 000027H.4 000000H.1 BIT    UNIT     BIT            ?BI?BM8563
000027H.5 000027H   000000H.3 ---    ---      **GAP**
000028H   000044H   00001DH   BYTE   UNIT     DATA           ?DT?OPERATION
000045H   000053H   00000FH   BYTE   UNIT     DATA           ?DT?SC_IT
000054H   00005EH   00000BH   BYTE   UNIT     DATA           ?DT?MAIN
00005FH   000066H   000008H   BYTE   UNIT     DATA           ?DT?NST1001
000067H   00006EH   000008H   BYTE   UNIT     DATA           _DATA_GROUP_
00006FH   00006FH   000001H   BYTE   UNIT     IDATA          ?STACK

* * * * * * * * * * *   C O D E   M E M O R Y   * * * * * * * * * * * * *
000000H   000002H   000003H   ---    OFFS..   CODE           ?CO??C_STARTUP?0
000003H   000005H   000003H   BYTE   OFFS..   CODE           ?SC_IT?00003
000006H   00000AH   000005H   ---    ---      **GAP**
00000BH   00000DH   000003H   BYTE   OFFS..   CODE           ?SC_IT?0000B
00000EH   000012H   000005H   ---    ---      **GAP**
000013H   000015H   000003H   BYTE   OFFS..   CODE           ?SC_IT?00013
000016H   00001AH   000005H   ---    ---      **GAP**
00001BH   00001DH   000003H   BYTE   OFFS..   CODE           ?SC_IT?0001B
00001EH   000022H   000005H   ---    ---      **GAP**
000023H   000025H   000003H   BYTE   OFFS..   CODE           ?SC_IT?00023
000026H   00002AH   000005H   ---    ---      **GAP**
00002BH   00002DH   000003H   BYTE   OFFS..   CODE           ?SC_IT?0002B
00002EH   000032H   000005H   ---    ---      **GAP**
000033H   000035H   000003H   BYTE   OFFS..   CODE           ?SC_IT?00033
000036H   00003AH   000005H   ---    ---      **GAP**
00003BH   00003DH   000003H   BYTE   OFFS..   CODE           ?SC_IT?0003B
00003EH   000042H   000005H   ---    ---      **GAP**
000043H   000045H   000003H   BYTE   OFFS..   CODE           ?SC_IT?00043
000046H   00004AH   000005H   ---    ---      **GAP**
00004BH   00004DH   000003H   BYTE   OFFS..   CODE           ?SC_IT?0004B
00004EH   000052H   000005H   ---    ---      **GAP**
000053H   000055H   000003H   BYTE   OFFS..   CODE           ?SC_IT?00053
000056H   000062H   00000DH   ---    ---      **GAP**
LX51 LINKER/LOCATER V4.66.66.0                                                        09/07/2020  22:21:36  PAGE 3


000063H   000065H   000003H   BYTE   OFFS..   CODE           ?SC_IT?00063
000066H   00006AH   000005H   ---    ---      **GAP**
00006BH   00006DH   000003H   BYTE   OFFS..   CODE           ?SC_IT?0006B
00006EH   000072H   000005H   ---    ---      **GAP**
000073H   000075H   000003H   BYTE   OFFS..   CODE           ?SC_IT?00073
000076H   00007AH   000005H   ---    ---      **GAP**
00007BH   00007DH   000003H   BYTE   OFFS..   CODE           ?SC_IT?0007B
00007EH   000082H   000005H   ---    ---      **GAP**
000083H   000085H   000003H   BYTE   OFFS..   CODE           ?SC_IT?00083
000086H   0000FFH   00007AH   ---    ---      **GAP**
000100H   000555H   000456H   BYTE   UNIT     CODE           ?C?LIB_CODE
000556H   0006F4H   00019FH   BYTE   UNIT     CODE           ?PR?CLOCK_PART?OPERATION
0006F5H   000857H   000163H   BYTE   UNIT     CODE           ?PR?_LCD_CLEAN?INTERFACE
000858H   00099EH   000147H   BYTE   UNIT     CODE           ?PR?MENU_BAR?OPERATION
00099FH   000AE0H   000142H   BYTE   UNIT     CODE           ?PR?GETNST1001TEMP?NST1001
000AE1H   000BEDH   00010DH   BYTE   UNIT     CODE           ?C_INITSEG
000BEEH   000CCBH   0000DEH   BYTE   UNIT     CODE           ?PR?MAINFUCTION?OPERATION
000CCCH   000DA0H   0000D5H   BYTE   UNIT     CODE           ?PR?TIMER2INTERRUPT?SC_IT
000DA1H   000E68H   0000C8H   BYTE   UNIT     CODE           ?PR?_GPIO_INIT?SC95F8X1X_GPIO
000E69H   000F25H   0000BDH   BYTE   UNIT     CODE           ?PR?MAIN_PART?OPERATION
000F26H   000FBFH   00009AH   BYTE   UNIT     CODE           ?C_C51STARTUP
000FC0H   001044H   000085H   BYTE   UNIT     CODE           ?PR?KEY_SCAN?EC06_KEY
001045H   0010B1H   00006DH   BYTE   UNIT     CODE           ?PR?_LCD_NUMBER?INTERFACE
0010B2H   001118H   000067H   BYTE   UNIT     CODE           ?PR?_LCD_WIND?INTERFACE
001119H   00117CH   000064H   BYTE   UNIT     CODE           ?PR?SC_INT_INIT?SC_INIT
00117DH   0011E0H   000064H   BYTE   UNIT     CODE           ?PR?_LCD_STEMPERATURE?INTERFACE
0011E1H   001239H   000059H   BYTE   UNIT     CODE           ?PR?_LCD_TIME?INTERFACE
00123AH   00127FH   000046H   BYTE   UNIT     CODE           ?PR?_LCD_MODE?INTERFACE
001280H   0012C5H   000046H   BYTE   UNIT     CODE           ?PR?_LCD_STATE?INTERFACE
0012C6H   001309H   000044H   BYTE   UNIT     CODE           ?C?LDIV
00130AH   001343H   00003AH   BYTE   UNIT     CODE           ?PR?BM8563_GET_TIME?BM8563
001344H   00137CH   000039H   BYTE   UNIT     CODE           ?PR?_BM8563_IIC_WRITEBYTE?BM8563
00137DH   0013B2H   000036H   BYTE   UNIT     CODE           ?PR?SC_GPIO_INIT?SC_INIT
0013B3H   0013E7H   000035H   BYTE   UNIT     CODE           ?PR?LCD_CLEANALL?INTERFACE
0013E8H   001418H   000031H   BYTE   UNIT     CODE           ?PR?TIME6_PART?OPERATION
001419H   001447H   00002FH   BYTE   UNIT     CODE           ?PR?BM8563_IIC_READBYTE?BM8563
001448H   001473H   00002CH   BYTE   UNIT     CODE           ?PR?BM8563_IIC_WAIT_ACK?BM8563
001474H   00149EH   00002BH   BYTE   UNIT     CODE           ?PR?_INT0_SETTRIGGERMODE?SC95F8X1X_INT
00149FH   0014C9H   00002BH   BYTE   UNIT     CODE           ?PR?_INT1_SETTRIGGERMODE?SC95F8X1X_INT
0014CAH   0014F4H   00002BH   BYTE   UNIT     CODE           ?PR?_INT2_SETTRIGGERMODE?SC95F8X1X_INT
0014F5H   00151EH   00002AH   BYTE   UNIT     CODE           ?PR?TIME_INIT?BM8563
00151FH   001545H   000027H   BYTE   UNIT     CODE           ?PR?SC_DDIC_INIT?SC_INIT
001546H   001569H   000024H   BYTE   UNIT     CODE           ?PR?LCD_TEMPER_ERROR?INTERFACE
00156AH   00158DH   000024H   BYTE   UNIT     CODE           ?PR?_DDIC_CONTROL?SC95F8X1X_DDIC
00158EH   0015B0H   000023H   BYTE   UNIT     CODE           ?PR?SC_OPTION_INIT?SC_INIT
0015B1H   0015D0H   000020H   BYTE   UNIT     CODE           ?PR?_BM8563_READ_ADD_BYTE?BM8563
0015D1H   0015EFH   00001FH   BYTE   UNIT     CODE           ?PR?SC_TIM2_INIT?SC_INIT
0015F0H   00160EH   00001FH   BYTE   UNIT     CODE           ?PR?SPIN_SCAN?EC06_KEY
00160FH   00162DH   00001FH   BYTE   UNIT     CODE           ?PR?_TIM2_TIMEBASEINIT?SC95F8X1X_TIMER2
00162EH   001649H   00001CH   BYTE   UNIT     CODE           ?PR?_OPTION_ADC_VREFCONFIG?SC95F8X1X_OPTION
00164AH   001661H   000018H   BYTE   UNIT     CODE           ?PR?SC_INIT?SC_INIT
001662H   001678H   000017H   BYTE   UNIT     CODE           ?PR?_BM8563_SEND_ADD_BYTE?BM8563
001679H   00168EH   000016H   BYTE   UNIT     CODE           ?PR?_INT0_ITCONFIG?SC95F8X1X_INT
00168FH   0016A4H   000016H   BYTE   UNIT     CODE           ?PR?_INT1_ITCONFIG?SC95F8X1X_INT
0016A5H   0016BAH   000016H   BYTE   UNIT     CODE           ?PR?_INT2_ITCONFIG?SC95F8X1X_INT
0016BBH   0016CFH   000015H   BYTE   UNIT     CODE           ?PR?BM8563_IIC_START?BM8563
0016D0H   0016E4H   000015H   BYTE   UNIT     CODE           ?PR?BM8563_IIC_STOP?BM8563
0016E5H   0016F9H   000015H   BYTE   UNIT     CODE           ?PR?_TIM2_ITCONFIG?SC95F8X1X_TIMER2
0016FAH   00170BH   000012H   BYTE   UNIT     CODE           ?PR?_DDIC_INIT?SC95F8X1X_DDIC
00170CH   00171CH   000011H   BYTE   UNIT     CODE           ?PR?_BCD_DEC?BM8563
00171DH   00172DH   000011H   BYTE   UNIT     CODE           ?PR?_TIM2_PRESCALERSELECTION?SC95F8X1X_TIMER2
00172EH   00173DH   000010H   BYTE   UNIT     CODE           ?PR?INT0INTERRUPT?SC_IT
00173EH   00174DH   000010H   BYTE   UNIT     CODE           ?PR?_LCD_WEEK?INTERFACE
00174EH   00175DH   000010H   BYTE   UNIT     CODE           ?PR?_DDIC_LCDCONFIG?SC95F8X1X_DDIC
00175EH   00176DH   000010H   BYTE   UNIT     CODE           ?PR?_TIM2_WORKMODE1CONFIG?SC95F8X1X_TIMER2
LX51 LINKER/LOCATER V4.66.66.0                                                        09/07/2020  22:21:36  PAGE 4


00176EH   00177CH   00000FH   BYTE   UNIT     CODE           ?PR?HOTCOOL_PART?OPERATION
00177DH   00178AH   00000EH   BYTE   UNIT     CODE           ?PR?_DELAYUS?BM8563
00178BH   001798H   00000EH   BYTE   UNIT     CODE           ?PR?_OPTION_XTIPLL_CMD?SC95F8X1X_OPTION
001799H   0017A6H   00000EH   BYTE   UNIT     CODE           ?PR?_OPTION_RST_PIN_CMD?SC95F8X1X_OPTION
0017A7H   0017B4H   00000EH   BYTE   UNIT     CODE           ?PR?_OPTION_JTG_CMD?SC95F8X1X_OPTION
0017B5H   0017C1H   00000DH   BYTE   UNIT     CODE           ?PR?MAIN?MAIN
0017C2H   0017CEH   00000DH   BYTE   UNIT     CODE           ?PR?_LCD_GROUP?INTERFACE
0017CFH   0017DBH   00000DH   BYTE   UNIT     CODE           ?PR?WIND_PART?OPERATION
0017DCH   0017E7H   00000CH   BYTE   UNIT     CODE           ?PR?BM8563_INIT?BM8563
0017E8H   0017F3H   00000CH   BYTE   UNIT     CODE           ?PR?_TIM2_CMD?SC95F8X1X_TIMER2
0017F4H   0017FEH   00000BH   BYTE   UNIT     CODE           ?PR?_DDIC_DMOD_SELCET?SC95F8X1X_DDIC
0017FFH   001809H   00000BH   BYTE   UNIT     CODE           ?PR?_DDIC_OUTPUTPINOFDUTYCYCLED4?SC95F8X1X_DDIC
00180AH   001814H   00000BH   BYTE   UNIT     CODE           ?PR?_DDIC_CMD?SC95F8X1X_DDIC
001815H   00181FH   00000BH   BYTE   UNIT     CODE           ?PR?_OPTION_SYSCLK_INIT?SC95F8X1X_OPTION
001820H   00182AH   00000BH   BYTE   UNIT     CODE           ?PR?_OPTION_LVR_INIT?SC95F8X1X_OPTION
00182BH   001835H   00000BH   BYTE   UNIT     CODE           ?PR?_OPTION_IAP_SETOPERATERANGE?SC95F8X1X_OPTION
001836H   00183DH   000008H   BYTE   UNIT     CODE           ?PR?IIC_INIT?BM8563
00183EH   001843H   000006H   BYTE   UNIT     CODE           ?PR?HOLIDAY_PART?OPERATION
001844H   001848H   000005H   BYTE   UNIT     CODE           ?PR?INT2INTERRUPT?SC_IT
001849H   00184CH   000004H   BYTE   UNIT     CODE           ?PR?INT1INTERRUPT?SC_IT
00184DH   00184DH   000001H   BYTE   UNIT     CODE           ?PR?TIMER0INTERRUPT?SC_IT
00184EH   00184EH   000001H   BYTE   UNIT     CODE           ?PR?TIMER1INTERRUPT?SC_IT
00184FH   00184FH   000001H   BYTE   UNIT     CODE           ?PR?UART0INTERRUPT?SC_IT
001850H   001850H   000001H   BYTE   UNIT     CODE           ?PR?ADCINTERRUPT?SC_IT
001851H   001851H   000001H   BYTE   UNIT     CODE           ?PR?USCI0INTERRUPT?SC_IT
001852H   001852H   000001H   BYTE   UNIT     CODE           ?PR?PWMINTERRUPT?SC_IT
001853H   001853H   000001H   BYTE   UNIT     CODE           ?PR?BTMINTERRUPT?SC_IT
001854H   001854H   000001H   BYTE   UNIT     CODE           ?PR?ACMPINTERRUPT?SC_IT
001855H   001855H   000001H   BYTE   UNIT     CODE           ?PR?TIMER3INTERRUPT?SC_IT
001856H   001856H   000001H   BYTE   UNIT     CODE           ?PR?TIMER4INTERRUPT?SC_IT
001857H   001857H   000001H   BYTE   UNIT     CODE           ?PR?USCI1INTERRUPT?SC_IT
001858H   001858H   000001H   BYTE   UNIT     CODE           ?PR?USCI2INTERRUPT?SC_IT
001859H   001859H   000001H   BYTE   UNIT     CODE           ?PR?COPY_PART?OPERATION
00185AH   00185AH   000001H   BYTE   UNIT     CODE           ?PR?FCTEMPER_PART?OPERATION
00185BH   0018E8H   00008EH   BYTE   UNIT     CONST          ?CO?INTERFACE

* * * * * * * * * * *  X D A T A   M E M O R Y  * * * * * * * * * * * * *
001000H   00101DH   00001EH   BYTE   OFFS..   XDATA          ?XD?SC95F8X1X_DDIC?0

* * * * * * * * *   R E M O V E D     S E G M E N T S   * * * * * * * *
   *DEL*:           000001H   BYTE   UNIT     CODE           ?PR?SC_UART0_INIT?SC_INIT
   *DEL*:           000001H   BYTE   UNIT     CODE           ?PR?SC_TIM0_INIT?SC_INIT
   *DEL*:           000001H   BYTE   UNIT     CODE           ?PR?SC_TIM1_INIT?SC_INIT
   *DEL*:           000001H   BYTE   UNIT     CODE           ?PR?SC_TIM3_INIT?SC_INIT
   *DEL*:           000001H   BYTE   UNIT     CODE           ?PR?SC_TIM4_INIT?SC_INIT
   *DEL*:           000001H   BYTE   UNIT     CODE           ?PR?SC_PWM_INIT?SC_INIT
   *DEL*:           000001H   BYTE   UNIT     CODE           ?PR?SC_ADC_INIT?SC_INIT
   *DEL*:           000001H   BYTE   UNIT     CODE           ?PR?SC_IAP_INIT?SC_INIT
   *DEL*:           000001H   BYTE   UNIT     CODE           ?PR?SC_USCI0_INIT?SC_INIT
   *DEL*:           000001H   BYTE   UNIT     CODE           ?PR?SC_USCI1_INIT?SC_INIT
   *DEL*:           000001H   BYTE   UNIT     CODE           ?PR?SC_USCI2_INIT?SC_INIT
   *DEL*:           000001H   BYTE   UNIT     CODE           ?PR?SC_BTM_INIT?SC_INIT
   *DEL*:           000001H   BYTE   UNIT     CODE           ?PR?SC_CRC_INIT?SC_INIT
   *DEL*:           000001H   BYTE   UNIT     CODE           ?PR?SC_WDT_INIT?SC_INIT
   *DEL*:           000001H   BYTE   UNIT     CODE           ?PR?SC_PWR_INIT?SC_INIT
   *DEL*:           000001H   BYTE   UNIT     CODE           ?PR?SC_ACMP_INIT?SC_INIT
   *DEL*:           000001H   BYTE   UNIT     CODE           ?PR?SC_MDU_INIT?SC_INIT
   *DEL*:           00001EH   BYTE   UNIT     CODE           ?PR?ENCODER_EC11_SCAN?EC06_KEY
   *DEL*:           0000C1H   BYTE   UNIT     CODE           ?PR?_ENCODER_EC11_ANALYZE?EC06_KEY
   *DEL*:           000058H   BYTE   UNIT     CODE           ?PR?_LCD_POWER?INTERFACE
   *DEL*:           000001H   BYTE   UNIT     DATA           ?DT?_LCD_POWER?INTERFACE
   *DEL*:           000000H.3 BIT    UNIT     BIT            ?BI?_LCD_POWER?INTERFACE
   *DEL*:           000058H   BYTE   UNIT     CODE           ?PR?_LCD_SIGNAL?INTERFACE
   *DEL*:           000001H   BYTE   UNIT     DATA           ?DT?_LCD_SIGNAL?INTERFACE
   *DEL*:           000000H.3 BIT    UNIT     BIT            ?BI?_LCD_SIGNAL?INTERFACE
LX51 LINKER/LOCATER V4.66.66.0                                                        09/07/2020  22:21:36  PAGE 5


   *DEL*:           000069H   BYTE   UNIT     CODE           ?PR?_LCD_HTEMPERATURE?INTERFACE
   *DEL*:           000002H   BYTE   UNIT     DATA           ?DT?_LCD_HTEMPERATURE?INTERFACE
   *DEL*:           00004CH   BYTE   UNIT     CODE           ?PR?_BM8563_IIC_RECEIVEDATA?BM8563
   *DEL*:           000041H   BYTE   UNIT     CODE           ?PR?_SETBM8563?BM8563
   *DEL*:           000007H   BYTE   UNIT     DATA           ?DT?_SETBM8563?BM8563
   *DEL*:           00000FH   BYTE   UNIT     CODE           ?PR?DDIC_DEINIT?SC95F8X1X_DDIC
   *DEL*:           000004H   BYTE   UNIT     CODE           ?PR?DDIC_LEDCONFIG?SC95F8X1X_DDIC
   *DEL*:           000026H   BYTE   UNIT     CODE           ?PR?GPIO_DEINIT?SC95F8X1X_GPIO
   *DEL*:           00001FH   BYTE   UNIT     CODE           ?PR?_GPIO_WRITE?SC95F8X1X_GPIO
   *DEL*:           000025H   BYTE   UNIT     CODE           ?PR?_GPIO_WRITEHIGH?SC95F8X1X_GPIO
   *DEL*:           00002BH   BYTE   UNIT     CODE           ?PR?_GPIO_WRITELOW?SC95F8X1X_GPIO
   *DEL*:           000021H   BYTE   UNIT     CODE           ?PR?_GPIO_READPORT?SC95F8X1X_GPIO
   *DEL*:           00002DH   BYTE   UNIT     CODE           ?PR?_GPIO_READPIN?SC95F8X1X_GPIO
   *DEL*:           000035H   BYTE   UNIT     CODE           ?PR?_INT_DEINIT?SC95F8X1X_INT
   *DEL*:           00000EH   BYTE   UNIT     CODE           ?PR?_OPTION_WDT_CMD?SC95F8X1X_OPTION
   *DEL*:           00001BH   BYTE   UNIT     CODE           ?PR?TIM2_DEINIT?SC95F8X1X_TIMER2
   *DEL*:           00000DH   BYTE   UNIT     CODE           ?PR?_TIM2_WORKMODE0CONFIG?SC95F8X1X_TIMER2
   *DEL*:           00000DH   BYTE   UNIT     CODE           ?PR?_TIM2_WORKMODE3CONFIG?SC95F8X1X_TIMER2
   *DEL*:           000022H   BYTE   UNIT     CODE           ?PR?_TIM2_WORKMODECONFIG?SC95F8X1X_TIMER2
   *DEL*:           00000CH   BYTE   UNIT     CODE           ?PR?_TIM2_SETEXEN2?SC95F8X1X_TIMER2
   *DEL*:           000012H   BYTE   UNIT     CODE           ?PR?_TIM2_GETFLAGSTATUS?SC95F8X1X_TIMER2
   *DEL*:           000008H   BYTE   UNIT     CODE           ?PR?_TIM2_CLEARFLAG?SC95F8X1X_TIMER2
   *DEL*:           00000EH   BYTE   UNIT     CODE           ?PR?IAP_DEINIT?SC95F8X1X_IAP
   *DEL*:           000032H   BYTE   UNIT     CODE           ?PR?_IAP_PROGRAMBYTE?SC95F8X1X_IAP
   *DEL*:           000005H   BYTE   UNIT     DATA           ?DT?_IAP_PROGRAMBYTE?SC95F8X1X_IAP
   *DEL*:           00001BH   BYTE   UNIT     CODE           ?PR?_IAP_READBYTE?SC95F8X1X_IAP
   *DEL*:           00001AH   BYTE   UNIT     CODE           ?PR?_IAP_SECTORERASE?SC95F8X1X_IAP



OVERLAY MAP OF MODULE:   ..\Output\86box_temperature (MAIN)


FUNCTION/MODULE                                BIT_GROUP   DATA_GROUP 
--> CALLED FUNCTION/MODULE                    START  STOP  START  STOP
======================================================================
INT0INTERRUPT/SC_IT                           ----- -----  ----- -----

*** NEW ROOT ********************************

TIMER0INTERRUPT/SC_IT                         ----- -----  ----- -----

*** NEW ROOT ********************************

INT1INTERRUPT/SC_IT                           ----- -----  ----- -----

*** NEW ROOT ********************************

TIMER1INTERRUPT/SC_IT                         ----- -----  ----- -----

*** NEW ROOT ********************************

UART0INTERRUPT/SC_IT                          ----- -----  ----- -----

*** NEW ROOT ********************************

TIMER2INTERRUPT/SC_IT                         ----- -----  ----- -----
  +--> SPIN_SCAN/EC06_KEY
  +--> KEY_SCAN/EC06_KEY

SPIN_SCAN/EC06_KEY                            ----- -----  ----- -----

KEY_SCAN/EC06_KEY                             ----- -----  ----- -----

*** NEW ROOT ********************************
LX51 LINKER/LOCATER V4.66.66.0                                                        09/07/2020  22:21:36  PAGE 6



ADCINTERRUPT/SC_IT                            ----- -----  ----- -----

*** NEW ROOT ********************************

USCI0INTERRUPT/SC_IT                          ----- -----  ----- -----

*** NEW ROOT ********************************

PWMINTERRUPT/SC_IT                            ----- -----  ----- -----

*** NEW ROOT ********************************

BTMINTERRUPT/SC_IT                            ----- -----  ----- -----

*** NEW ROOT ********************************

INT2INTERRUPT/SC_IT                           ----- -----  ----- -----

*** NEW ROOT ********************************

ACMPINTERRUPT/SC_IT                           ----- -----  ----- -----

*** NEW ROOT ********************************

TIMER3INTERRUPT/SC_IT                         ----- -----  ----- -----

*** NEW ROOT ********************************

TIMER4INTERRUPT/SC_IT                         ----- -----  ----- -----

*** NEW ROOT ********************************

USCI1INTERRUPT/SC_IT                          ----- -----  ----- -----

*** NEW ROOT ********************************

USCI2INTERRUPT/SC_IT                          ----- -----  ----- -----

*** NEW ROOT ********************************

?C_C51STARTUP                                 ----- -----  ----- -----
  +--> MAIN/MAIN
  +--> ?C_INITSEG

MAIN/MAIN                                     ----- -----  ----- -----
  +--> SC_INIT/SC_INIT
  +--> BM8563_INIT/BM8563
  +--> MAINFUCTION/OPERATION

SC_INIT/SC_INIT                               ----- -----  ----- -----
  +--> SC_GPIO_INIT/SC_INIT
  +--> SC_OPTION_INIT/SC_INIT
  +--> SC_TIM2_INIT/SC_INIT
  +--> SC_INT_INIT/SC_INIT
  +--> SC_DDIC_INIT/SC_INIT

SC_GPIO_INIT/SC_INIT                          ----- -----  ----- -----
  +--> _GPIO_INIT/SC95F8X1X_GPIO

_GPIO_INIT/SC95F8X1X_GPIO                     ----- -----  ----- -----

SC_OPTION_INIT/SC_INIT                        ----- -----  ----- -----
  +--> _OPTION_SYSCLK_INIT/SC95F8X1X_OPTION
  +--> _OPTION_XTIPLL_CMD/SC95F8X1X_OPTION
LX51 LINKER/LOCATER V4.66.66.0                                                        09/07/2020  22:21:36  PAGE 7


  +--> _OPTION_ADC_VREFCONFIG/SC95F8X1X_OPTION
  +--> _OPTION_RST_PIN_CMD/SC95F8X1X_OPTION
  +--> _OPTION_LVR_INIT/SC95F8X1X_OPTION
  +--> _OPTION_IAP_SETOPERATERANGE/SC95F8X1X_OPTION
  +--> _OPTION_JTG_CMD/SC95F8X1X_OPTION

_OPTION_SYSCLK_INIT/SC95F8X1X_OPTION          ----- -----  ----- -----

_OPTION_XTIPLL_CMD/SC95F8X1X_OPTION           ----- -----  ----- -----

_OPTION_ADC_VREFCONFIG/SC95F8X1X_OPTION       ----- -----  ----- -----

_OPTION_RST_PIN_CMD/SC95F8X1X_OPTION          ----- -----  ----- -----

_OPTION_LVR_INIT/SC95F8X1X_OPTION             ----- -----  ----- -----

_OPTION_IAP_SETOPERATERANGE/SC95F8X1X_OP+     ----- -----  ----- -----
... TION

_OPTION_JTG_CMD/SC95F8X1X_OPTION              ----- -----  ----- -----

SC_TIM2_INIT/SC_INIT                          ----- -----  ----- -----
  +--> _TIM2_TIMEBASEINIT/SC95F8X1X_TIMER2
  +--> _TIM2_PRESCALERSELECTION/SC95F8X1X_TIMER2
  +--> _TIM2_WORKMODE1CONFIG/SC95F8X1X_TIMER2
  +--> _TIM2_ITCONFIG/SC95F8X1X_TIMER2
  +--> _TIM2_CMD/SC95F8X1X_TIMER2

_TIM2_TIMEBASEINIT/SC95F8X1X_TIMER2           ----- -----  ----- -----

_TIM2_PRESCALERSELECTION/SC95F8X1X_TIMER+     ----- -----  ----- -----
... 2

_TIM2_WORKMODE1CONFIG/SC95F8X1X_TIMER2        ----- -----  ----- -----

_TIM2_ITCONFIG/SC95F8X1X_TIMER2               ----- -----  ----- -----

_TIM2_CMD/SC95F8X1X_TIMER2                    ----- -----  ----- -----

SC_INT_INIT/SC_INIT                           ----- -----  ----- -----
  +--> _GPIO_INIT/SC95F8X1X_GPIO
  +--> _INT2_SETTRIGGERMODE/SC95F8X1X_INT
  +--> _INT2_ITCONFIG/SC95F8X1X_INT
  +--> _INT1_SETTRIGGERMODE/SC95F8X1X_INT
  +--> _INT1_ITCONFIG/SC95F8X1X_INT
  +--> _INT0_SETTRIGGERMODE/SC95F8X1X_INT
  +--> _INT0_ITCONFIG/SC95F8X1X_INT

_INT2_SETTRIGGERMODE/SC95F8X1X_INT            ----- -----  ----- -----

_INT2_ITCONFIG/SC95F8X1X_INT                  ----- -----  ----- -----

_INT1_SETTRIGGERMODE/SC95F8X1X_INT            ----- -----  ----- -----

_INT1_ITCONFIG/SC95F8X1X_INT                  ----- -----  ----- -----

_INT0_SETTRIGGERMODE/SC95F8X1X_INT            ----- -----  ----- -----

_INT0_ITCONFIG/SC95F8X1X_INT                  ----- -----  ----- -----

SC_DDIC_INIT/SC_INIT                          ----- -----  ----- -----
  +--> _DDIC_DMOD_SELCET/SC95F8X1X_DDIC
  +--> _DDIC_INIT/SC95F8X1X_DDIC
  +--> _DDIC_LCDCONFIG/SC95F8X1X_DDIC
  +--> _DDIC_OUTPUTPINOFDUTYCYCLED4/SC95F8X1X_DDIC
LX51 LINKER/LOCATER V4.66.66.0                                                        09/07/2020  22:21:36  PAGE 8


  +--> _DDIC_CMD/SC95F8X1X_DDIC

_DDIC_DMOD_SELCET/SC95F8X1X_DDIC              ----- -----  ----- -----

_DDIC_INIT/SC95F8X1X_DDIC                     ----- -----  0067H 006BH

_DDIC_LCDCONFIG/SC95F8X1X_DDIC                ----- -----  ----- -----

_DDIC_OUTPUTPINOFDUTYCYCLED4/SC95F8X1X_D+     ----- -----  ----- -----
... DIC

_DDIC_CMD/SC95F8X1X_DDIC                      ----- -----  ----- -----

BM8563_INIT/BM8563                            ----- -----  ----- -----
  +--> IIC_INIT/BM8563
  +--> _BM8563_SEND_ADD_BYTE/BM8563
  +--> TIME_INIT/BM8563

IIC_INIT/BM8563                               ----- -----  ----- -----

_BM8563_SEND_ADD_BYTE/BM8563                  ----- -----  ----- -----
  +--> BM8563_IIC_START/BM8563
  +--> _BM8563_IIC_WRITEBYTE/BM8563
  +--> BM8563_IIC_WAIT_ACK/BM8563
  +--> BM8563_IIC_STOP/BM8563

BM8563_IIC_START/BM8563                       ----- -----  ----- -----
  +--> _DELAYUS/BM8563

_DELAYUS/BM8563                               ----- -----  ----- -----

_BM8563_IIC_WRITEBYTE/BM8563                  ----- -----  ----- -----
  +--> _DELAYUS/BM8563

BM8563_IIC_WAIT_ACK/BM8563                    ----- -----  ----- -----
  +--> _BM8563_IIC_WRITEBYTE/BM8563
  +--> _DELAYUS/BM8563

BM8563_IIC_STOP/BM8563                        ----- -----  ----- -----
  +--> _DELAYUS/BM8563

TIME_INIT/BM8563                              ----- -----  ----- -----
  +--> _BM8563_SEND_ADD_BYTE/BM8563

MAINFUCTION/OPERATION                         ----- -----  ----- -----
  +--> MAIN_PART/OPERATION
  +--> CLOCK_PART/OPERATION
  +--> WIND_PART/OPERATION
  +--> HOLIDAY_PART/OPERATION
  +--> HOTCOOL_PART/OPERATION
  +--> MENU_BAR/OPERATION
  +--> TIME6_PART/OPERATION
  +--> COPY_PART/OPERATION
  +--> FCTEMPER_PART/OPERATION

MAIN_PART/OPERATION                           ----- -----  ----- -----
  +--> BM8563_GET_TIME/BM8563
  +--> GETNST1001TEMP/NST1001
  +--> _LCD_CLEAN/INTERFACE
  +--> _LCD_TIME/INTERFACE
  +--> _DDIC_CONTROL/SC95F8X1X_DDIC
  +--> _LCD_WIND/INTERFACE
  +--> _LCD_MODE/INTERFACE
  +--> _LCD_STEMPERATURE/INTERFACE
  +--> LCD_TEMPER_ERROR/INTERFACE
LX51 LINKER/LOCATER V4.66.66.0                                                        09/07/2020  22:21:36  PAGE 9


  +--> _LCD_STATE/INTERFACE

BM8563_GET_TIME/BM8563                        ----- -----  0067H 006EH
  +--> _BM8563_READ_ADD_BYTE/BM8563
  +--> _BCD_DEC/BM8563

_BM8563_READ_ADD_BYTE/BM8563                  ----- -----  ----- -----
  +--> BM8563_IIC_START/BM8563
  +--> BM8563_IIC_WAIT_ACK/BM8563
  +--> _BM8563_IIC_WRITEBYTE/BM8563
  +--> BM8563_IIC_READBYTE/BM8563
  +--> BM8563_IIC_STOP/BM8563

BM8563_IIC_READBYTE/BM8563                    ----- -----  ----- -----
  +--> _DELAYUS/BM8563

_BCD_DEC/BM8563                               ----- -----  ----- -----

GETNST1001TEMP/NST1001                        ----- -----  ----- -----
  +--> _INT0_ITCONFIG/SC95F8X1X_INT

_LCD_CLEAN/INTERFACE                          ----- -----  0068H 0069H
  +--> _DDIC_CONTROL/SC95F8X1X_DDIC
  +--> ?CO?INTERFACE
  +--> _LCD_WIND/INTERFACE

_DDIC_CONTROL/SC95F8X1X_DDIC                  ----- -----  ----- -----

?CO?INTERFACE                                 ----- -----  ----- -----

_LCD_WIND/INTERFACE                           ----- -----  ----- -----
  +--> _DDIC_CONTROL/SC95F8X1X_DDIC

_LCD_TIME/INTERFACE                           27H.0 27H.2  0068H 006AH
  +--> _LCD_NUMBER/INTERFACE
  +--> ?CO?INTERFACE
  +--> _DDIC_CONTROL/SC95F8X1X_DDIC

_LCD_NUMBER/INTERFACE                         27H.3 27H.3  006BH 006DH
  +--> ?CO?INTERFACE
  +--> _DDIC_CONTROL/SC95F8X1X_DDIC

_LCD_MODE/INTERFACE                           ----- -----  ----- -----
  +--> _DDIC_CONTROL/SC95F8X1X_DDIC

_LCD_STEMPERATURE/INTERFACE                   ----- -----  0067H 0068H
  +--> _DDIC_CONTROL/SC95F8X1X_DDIC
  +--> _LCD_NUMBER/INTERFACE

LCD_TEMPER_ERROR/INTERFACE                    ----- -----  ----- -----
  +--> _DDIC_CONTROL/SC95F8X1X_DDIC

_LCD_STATE/INTERFACE                          ----- -----  ----- -----
  +--> _DDIC_CONTROL/SC95F8X1X_DDIC

CLOCK_PART/OPERATION                          ----- -----  ----- -----
  +--> _LCD_TIME/INTERFACE
  +--> _DDIC_CONTROL/SC95F8X1X_DDIC
  +--> _BM8563_SEND_ADD_BYTE/BM8563

WIND_PART/OPERATION                           ----- -----  ----- -----

HOLIDAY_PART/OPERATION                        ----- -----  ----- -----

HOTCOOL_PART/OPERATION                        ----- -----  ----- -----
LX51 LINKER/LOCATER V4.66.66.0                                                        09/07/2020  22:21:36  PAGE 10



MENU_BAR/OPERATION                            ----- -----  0067H 0067H
  +--> LCD_CLEANALL/INTERFACE
  +--> _LCD_CLEAN/INTERFACE
  +--> _DDIC_CONTROL/SC95F8X1X_DDIC
  +--> _LCD_NUMBER/INTERFACE
  +--> _LCD_GROUP/INTERFACE
  +--> _LCD_TIME/INTERFACE
  +--> _LCD_WEEK/INTERFACE

LCD_CLEANALL/INTERFACE                        ----- -----  ----- -----
  +--> _LCD_CLEAN/INTERFACE
  +--> _DDIC_CONTROL/SC95F8X1X_DDIC

_LCD_GROUP/INTERFACE                          ----- -----  ----- -----
  +--> ?CO?INTERFACE
  +--> _DDIC_CONTROL/SC95F8X1X_DDIC

_LCD_WEEK/INTERFACE                           27H.0 27H.0  ----- -----
  +--> ?CO?INTERFACE
  +--> _DDIC_CONTROL/SC95F8X1X_DDIC

TIME6_PART/OPERATION                          ----- -----  ----- -----
  +--> LCD_CLEANALL/INTERFACE

COPY_PART/OPERATION                           ----- -----  ----- -----

FCTEMPER_PART/OPERATION                       ----- -----  ----- -----

?C_INITSEG                                    ----- -----  ----- -----



PUBLIC SYMBOLS OF MODULE:  ..\Output\86box_temperature (MAIN)


      VALUE       CLASS    TYPE      PUBLIC SYMBOL NAME
      =================================================
      00000067H   DATA     BYTE      ?_DDIC_Init?BYTE
*DEL*:00000000H   DATA     BYTE      ?_IAP_ProgramByte?BYTE
      00000027H.3 BIT      BIT       ?_LCD_number?BIT
      00000027H.0 BIT      BIT       ?_LCD_time?BIT
      00000027H.0 BIT      BIT       ?_LCD_week?BIT
*DEL*:00000000H   DATA     BYTE      ?_SetBM8563?BYTE
      0100033CH   CODE     ---       ?C?CASTF
      010003BDH   CODE     ---       ?C?CLDPTR
      00000000H   NUMBER   ---       ?C?CODESEG
      01000308H   CODE     ---       ?C?FCASTC
      01000303H   CODE     ---       ?C?FCASTI
      010002FEH   CODE     ---       ?C?FCASTL
      01000107H   CODE     ---       ?C?FPADD
      01000373H   CODE     ---       ?C?FPGETOPN2
      010001F8H   CODE     ---       ?C?FPMUL
      010003A8H   CODE     ---       ?C?FPNANRESULT
      010003B2H   CODE     ---       ?C?FPOVERFLOW
      0100038AH   CODE     ---       ?C?FPRESULT
      0100039EH   CODE     ---       ?C?FPRESULT2
      01000103H   CODE     ---       ?C?FPSUB
      010003AFH   CODE     ---       ?C?FPUNDERFLOW
      0100042BH   CODE     ---       ?C?LMUL
      0100047AH   CODE     ---       ?C?LNEG
      010012C6H   CODE     ---       ?C?SLDIV
      010003D6H   CODE     ---       ?C?UIDIV
      010004C4H   CODE     ---       ?C?ULDIV
      00000000H   NUMBER   ---       ?C?XDATASEG
LX51 LINKER/LOCATER V4.66.66.0                                                        09/07/2020  22:21:36  PAGE 11


      01000F7BH   CODE     ---       ?C_START
      01000000H   CODE     ---       ?C_STARTUP
      0100170CH   CODE     ---       _Bcd_dec
*DEL*:00000000H   CODE     ---       _BM8563_IIC_ReceiveData
      01001344H   CODE     ---       _BM8563_IIC_WriteByte
      010015B1H   CODE     ---       _BM8563_read_add_byte
      01001662H   CODE     ---       _BM8563_send_add_byte
      0100180AH   CODE     ---       _DDIC_Cmd
      0100156AH   CODE     ---       _DDIC_Control
      010017F4H   CODE     ---       _DDIC_DMOD_Selcet
      010016FAH   CODE     ---       _DDIC_Init
      0100174EH   CODE     ---       _DDIC_LCDConfig
      010017FFH   CODE     ---       _DDIC_OutputPinOfDutycycleD4
      01001784H   CODE     ---       _Delayus
*DEL*:00000000H   CODE     ---       _Encoder_EC11_Analyze
      01000DA1H   CODE     ---       _GPIO_Init
*DEL*:00000000H   CODE     ---       _GPIO_ReadPin
*DEL*:00000000H   CODE     ---       _GPIO_ReadPort
*DEL*:00000000H   CODE     ---       _GPIO_Write
*DEL*:00000000H   CODE     ---       _GPIO_WriteHigh
*DEL*:00000000H   CODE     ---       _GPIO_WriteLow
*DEL*:00000000H   CODE     ---       _IAP_ProgramByte
*DEL*:00000000H   CODE     ---       _IAP_ReadByte
*DEL*:00000000H   CODE     ---       _IAP_SectorErase
      01001679H   CODE     ---       _INT0_ITConfig
      01001474H   CODE     ---       _INT0_SetTriggerMode
      0100168FH   CODE     ---       _INT1_ITConfig
      0100149FH   CODE     ---       _INT1_SetTriggerMode
      010016A5H   CODE     ---       _INT2_ITConfig
      010014CAH   CODE     ---       _INT2_SetTriggerMode
*DEL*:00000000H   CODE     ---       _INT_DeInit
      010006F5H   CODE     ---       _LCD_clean
      010017C2H   CODE     ---       _LCD_group
*DEL*:00000000H   CODE     ---       _LCD_hTemperature
      0100123AH   CODE     ---       _LCD_mode
      0100105FH   CODE     ---       _LCD_number
*DEL*:00000000H   CODE     ---       _LCD_power
*DEL*:00000000H   CODE     ---       _LCD_signal
      01001280H   CODE     ---       _LCD_state
      0100117DH   CODE     ---       _LCD_sTemperature
      010011E1H   CODE     ---       _LCD_time
      0100173EH   CODE     ---       _LCD_week
      010010B2H   CODE     ---       _LCD_wind
      0100162EH   CODE     ---       _OPTION_ADC_VrefConfig
      0100182BH   CODE     ---       _OPTION_IAP_SetOperateRange
      010017A7H   CODE     ---       _OPTION_JTG_Cmd
      01001820H   CODE     ---       _OPTION_LVR_Init
      01001799H   CODE     ---       _OPTION_RST_PIN_Cmd
      01001815H   CODE     ---       _OPTION_SYSCLK_Init
*DEL*:00000000H   CODE     ---       _OPTION_WDT_Cmd
      0100178BH   CODE     ---       _OPTION_XTIPLL_Cmd
*DEL*:00000000H   CODE     ---       _SetBM8563
*DEL*:00000000H   CODE     ---       _TIM2_ClearFlag
      010017E8H   CODE     ---       _TIM2_Cmd
*DEL*:00000000H   CODE     ---       _TIM2_GetFlagStatus
      010016E5H   CODE     ---       _TIM2_ITConfig
      0100171DH   CODE     ---       _TIM2_PrescalerSelection
*DEL*:00000000H   CODE     ---       _TIM2_SetEXEN2
      0100160FH   CODE     ---       _TIM2_TimeBaseInit
*DEL*:00000000H   CODE     ---       _TIM2_WorkMode0Config
      0100175EH   CODE     ---       _TIM2_WorkMode1Config
*DEL*:00000000H   CODE     ---       _TIM2_WorkMode3Config
*DEL*:00000000H   CODE     ---       _TIM2_WorkModeConfig
*SFR* 000000D0H.6 DATA     BIT       AC
*SFR* 000000E0H   DATA     BYTE      ACC
LX51 LINKER/LOCATER V4.66.66.0                                                        09/07/2020  22:21:36  PAGE 12


      01001854H   CODE     ---       ACMPInterrupt
*SFR* 000000ABH   DATA     BYTE      ADCCFG0
*SFR* 000000ACH   DATA     BYTE      ADCCFG1
*SFR* 000000B5H   DATA     BYTE      ADCCFG2
*SFR* 000000ADH   DATA     BYTE      ADCCON
      01001850H   CODE     ---       ADCInterrupt
*SFR* 000000AFH   DATA     BYTE      ADCVH
*SFR* 000000AEH   DATA     BYTE      ADCVL
*SFR* 000000F0H   DATA     BYTE      B
      0000004DH   DATA     WORD      blink_start_count
      00000021H.6 BIT      BIT       blink_stop_flag
      0100130AH   CODE     ---       BM8563_get_time
      0000001CH   DATA     BYTE      BM8563_hour
      01001419H   CODE     ---       BM8563_IIC_ReadByte
      010016BBH   CODE     ---       BM8563_IIC_Start
      010016D0H   CODE     ---       BM8563_IIC_Stop
      01001453H   CODE     ---       BM8563_IIC_Wait_ACK
      010017DCH   CODE     ---       BM8563_init
      0000001DH   DATA     BYTE      BM8563_min
*SFR* 000000D8H.4 DATA     BIT       BM8563_SCL
*SFR* 000000D8H.5 DATA     BIT       BM8563_SDA
*SFR* 000000FBH   DATA     BYTE      BTMCON
      01001853H   CODE     ---       BTMInterrupt
      01000556H   CODE     ---       clock_part
*SFR* 000000B6H   DATA     BYTE      CMPCFG
*SFR* 000000B7H   DATA     BYTE      CMPCON
      01001859H   CODE     ---       copy_part
*SFR* 000000C8H   DATA     BIT       CP
*SFR* 000000FCH   DATA     BYTE      CRCINX
*SFR* 000000FDH   DATA     BYTE      CRCREG
*SFR* 000000D0H.7 DATA     BIT       CY
*DEL*:00000000H   CODE     ---       DDIC_DeInit
*DEL*:00000000H   CODE     ---       DDIC_LEDConfig
*SFR* 00000093H   DATA     BYTE      DDRCON
*SFR* 00000083H   DATA     BYTE      DPH
*SFR* 00000085H   DATA     BYTE      DPH1
*SFR* 00000082H   DATA     BYTE      DPL
*SFR* 00000084H   DATA     BYTE      DPL1
*SFR* 00000086H   DATA     BYTE      DPS
*SFR* 000000A8H.7 DATA     BIT       EA
*SFR* 000000A8H.6 DATA     BIT       EADC
*SFR* 000000A8H   DATA     BIT       EINT0
*SFR* 000000A8H.2 DATA     BIT       EINT1
*DEL*:00000000H   CODE     ---       Encoder_EC11_Scan
*SFR* 000000A8H.1 DATA     BIT       ET0
*SFR* 000000A8H.3 DATA     BIT       ET1
*SFR* 000000A8H.5 DATA     BIT       ET2
*SFR* 000000A8H.4 DATA     BIT       EUART
*SFR* 000000E9H   DATA     BYTE      EXA0
*SFR* 000000EAH   DATA     BYTE      EXA1
*SFR* 000000EBH   DATA     BYTE      EXA2
*SFR* 000000ECH   DATA     BYTE      EXA3
*SFR* 000000F7H   DATA     BYTE      EXADH
*SFR* 000000EEH   DATA     BYTE      EXBH
*SFR* 000000EDH   DATA     BYTE      EXBL
*SFR* 000000C8H.3 DATA     BIT       EXENX
*SFR* 000000C8H.6 DATA     BIT       EXFX
*SFR* 000000D0H.5 DATA     BIT       F0
*SFR* 000000D0H.1 DATA     BIT       F1
      0100185AH   CODE     ---       FCtemper_part
      0100099FH   CODE     ---       GetNST1001Temp
*DEL*:00000000H   CODE     ---       GPIO_DeInit
      0100183EH   CODE     ---       holiday_part
      0100176EH   CODE     ---       hotcool_part
*DEL*:00000000H   CODE     ---       IAP_DeInit
LX51 LINKER/LOCATER V4.66.66.0                                                        09/07/2020  22:21:36  PAGE 13


*SFR* 000000F4H   DATA     BYTE      IAPADE
*SFR* 000000F3H   DATA     BYTE      IAPADH
*SFR* 000000F2H   DATA     BYTE      IAPADL
*SFR* 000000F6H   DATA     BYTE      IAPCTL
*SFR* 000000F5H   DATA     BYTE      IAPDAT
*SFR* 000000F1H   DATA     BYTE      IAPKEY
*SFR* 000000A8H   DATA     BYTE      IE
*SFR* 000000A9H   DATA     BYTE      IE1
*SFR* 000000AAH   DATA     BYTE      IE2
      01001836H   CODE     ---       IIC_Init
*SFR* 000000B4H   DATA     BYTE      INT0F
      0100172EH   CODE     ---       INT0Interrupt
*SFR* 000000BBH   DATA     BYTE      INT0R
      00000026H.4 BIT      BIT       int1_first_flag
*SFR* 000000BCH   DATA     BYTE      INT1F
      01001849H   CODE     ---       INT1Interrupt
*SFR* 000000BDH   DATA     BYTE      INT1R
*SFR* 000000BEH   DATA     BYTE      INT2F
      01001844H   CODE     ---       INT2Interrupt
*SFR* 000000BFH   DATA     BYTE      INT2R
*SFR* 00000096H   DATA     BYTE      IOHCON0
*SFR* 00000097H   DATA     BYTE      IOHCON1
*SFR* 000000B8H   DATA     BYTE      IP
*SFR* 000000B9H   DATA     BYTE      IP1
*SFR* 000000BAH   DATA     BYTE      IP2
*SFR* 000000B8H.6 DATA     BIT       IPADC
*SFR* 000000B8H   DATA     BIT       IPINT0
*SFR* 000000B8H.2 DATA     BIT       IPINT1
*SFR* 000000B8H.1 DATA     BIT       IPT0
*SFR* 000000B8H.3 DATA     BIT       IPT1
*SFR* 000000B8H.5 DATA     BIT       IPT2
*SFR* 000000B8H.4 DATA     BIT       IPUART
      00000024H.4 BIT      BIT       Key_left_long
      00000024H.5 BIT      BIT       Key_left_short
      00000024H.1 BIT      BIT       Key_right_long
      00000024H.2 BIT      BIT       Key_right_short
      01000FC0H   CODE     ---       key_scan
      010018D9H   CONST    ---       LCD_bits_SEG
      010013B3H   CODE     ---       LCD_cleanALL
      01001893H   CONST    ---       LCD_number_COM
      0100185BH   CONST    ---       LCD_number_SEG
      01001546H   CODE     ---       LCD_Temper_error
      010018E2H   CONST    ---       LCD_week_SEG
      02001000H   XDATA    ---       LCDRAM
      010017B5H   CODE     ---       main
      01000E69H   CODE     ---       main_part
      01000BEEH   CODE     ---       MainFuction
      01000858H   CODE     ---       menu_bar
      00000021H.5 BIT      BIT       menu_clock_flag
      00000032H   DATA     BYTE      menu_grade
      00000021H.3 BIT      BIT       menu_holiday_flag
      00000021H.4 BIT      BIT       menu_hotcool_flag
      00000022H.0 BIT      BIT       menu_temp_flag
      00000021H.7 BIT      BIT       menu_wind_flag
      00000062H   DATA     WORD      N_Temper
      0000003AH   DATA     ---       now
*SFR* 00000080H.6 DATA     BIT       NST1001_DQ
*SFR* 000000D8H.3 DATA     BIT       NST1001_IO
*SFR* 000000EFH   DATA     BYTE      OPERCON
*SFR* 000000FEH   DATA     BYTE      OPINX
*SFR* 000000FFH   DATA     BYTE      OPREG
*SFR* 0000008FH   DATA     BYTE      OTCON
*SFR* 000000D0H.2 DATA     BIT       OV
*SFR* 000000D0H   DATA     BIT       P
*SFR* 00000080H   DATA     BYTE      P0
LX51 LINKER/LOCATER V4.66.66.0                                                        09/07/2020  22:21:36  PAGE 14


*SFR* 00000080H   DATA     BIT       P00
*SFR* 00000080H.1 DATA     BIT       P01
*SFR* 00000080H.2 DATA     BIT       P02
*SFR* 00000080H.3 DATA     BIT       P03
*SFR* 00000080H.4 DATA     BIT       P04
*SFR* 00000080H.5 DATA     BIT       P05
*SFR* 00000080H.6 DATA     BIT       P06
*SFR* 00000080H.7 DATA     BIT       P07
*SFR* 0000009AH   DATA     BYTE      P0CON
*SFR* 0000009BH   DATA     BYTE      P0PH
*SFR* 0000009CH   DATA     BYTE      P0VO
*SFR* 00000090H   DATA     BYTE      P1
*SFR* 00000090H   DATA     BIT       P10
*SFR* 00000090H.1 DATA     BIT       P11
*SFR* 00000090H.2 DATA     BIT       P12
*SFR* 00000090H.3 DATA     BIT       P13
*SFR* 00000090H.4 DATA     BIT       P14
*SFR* 00000090H.5 DATA     BIT       P15
*SFR* 00000090H.6 DATA     BIT       P16
*SFR* 00000090H.7 DATA     BIT       P17
*SFR* 00000091H   DATA     BYTE      P1CON
*SFR* 00000092H   DATA     BYTE      P1PH
*SFR* 00000094H   DATA     BYTE      P1VO
*SFR* 000000A0H   DATA     BYTE      P2
*SFR* 000000A0H   DATA     BIT       P20
*SFR* 000000A0H.1 DATA     BIT       P21
*SFR* 000000A0H.2 DATA     BIT       P22
*SFR* 000000A0H.3 DATA     BIT       P23
*SFR* 000000A0H.4 DATA     BIT       P24
*SFR* 000000A0H.5 DATA     BIT       P25
*SFR* 000000A0H.6 DATA     BIT       P26
*SFR* 000000A0H.7 DATA     BIT       P27
*SFR* 000000A1H   DATA     BYTE      P2CON
*SFR* 000000A2H   DATA     BYTE      P2PH
*SFR* 000000A3H   DATA     BYTE      P2VO
*SFR* 000000B0H   DATA     BYTE      P3
*SFR* 000000B0H   DATA     BIT       P30
*SFR* 000000B0H.1 DATA     BIT       P31
*SFR* 000000B0H.2 DATA     BIT       P32
*SFR* 000000B0H.3 DATA     BIT       P33
*SFR* 000000B0H.4 DATA     BIT       P34
*SFR* 000000B0H.5 DATA     BIT       P35
*SFR* 000000B0H.6 DATA     BIT       P36
*SFR* 000000B0H.7 DATA     BIT       P37
*SFR* 000000B1H   DATA     BYTE      P3CON
*SFR* 000000B2H   DATA     BYTE      P3PH
*SFR* 000000B3H   DATA     BYTE      P3VO
*SFR* 000000C0H   DATA     BYTE      P4
*SFR* 000000C0H   DATA     BIT       P40
*SFR* 000000C0H.1 DATA     BIT       P41
*SFR* 000000C0H.2 DATA     BIT       P42
*SFR* 000000C0H.3 DATA     BIT       P43
*SFR* 000000C0H.4 DATA     BIT       P44
*SFR* 000000C0H.5 DATA     BIT       P45
*SFR* 000000C0H.6 DATA     BIT       P46
*SFR* 000000C0H.7 DATA     BIT       P47
*SFR* 000000C1H   DATA     BYTE      P4CON
*SFR* 000000C2H   DATA     BYTE      P4PH
*SFR* 000000D8H   DATA     BYTE      P5
*SFR* 000000D8H   DATA     BIT       P50
*SFR* 000000D8H.1 DATA     BIT       P51
*SFR* 000000D8H.2 DATA     BIT       P52
*SFR* 000000D8H.3 DATA     BIT       P53
*SFR* 000000D8H.4 DATA     BIT       P54
*SFR* 000000D8H.5 DATA     BIT       P55
LX51 LINKER/LOCATER V4.66.66.0                                                        09/07/2020  22:21:36  PAGE 15


*SFR* 000000D9H   DATA     BYTE      P5CON
*SFR* 000000DAH   DATA     BYTE      P5PH
*SFR* 00000087H   DATA     BYTE      PCON
*SFR* 000000D0H   DATA     BYTE      PSW
*SFR* 000000D4H   DATA     BYTE      PWMCFG
*SFR* 000000D3H   DATA     BYTE      PWMCON
*SFR* 000000D5H   DATA     BYTE      PWMDFR
*SFR* 000000D6H   DATA     BYTE      PWMFLT
      01001852H   CODE     ---       PWMInterrupt
*SFR* 000000D7H   DATA     BYTE      PWMMOD
*SFR* 00000098H.2 DATA     BIT       RB8
*SFR* 000000CBH   DATA     BYTE      RCAPXH
*SFR* 000000CAH   DATA     BYTE      RCAPXL
*SFR* 000000C8H.5 DATA     BIT       RCLKX
*SFR* 00000098H.4 DATA     BIT       REN
*SFR* 00000098H   DATA     BIT       RI
*SFR* 000000D0H.3 DATA     BIT       RS0
*SFR* 000000D0H.4 DATA     BIT       RS1
*SFR* 00000099H   DATA     BYTE      SBUF
*DEL*:00000000H   CODE     ---       SC_ACMP_Init
*DEL*:00000000H   CODE     ---       SC_ADC_Init
*DEL*:00000000H   CODE     ---       SC_BTM_Init
*DEL*:00000000H   CODE     ---       SC_CRC_Init
      0100151FH   CODE     ---       SC_DDIC_Init
      0100137DH   CODE     ---       SC_GPIO_Init
*DEL*:00000000H   CODE     ---       SC_IAP_Init
      0100164AH   CODE     ---       SC_Init
      01001119H   CODE     ---       SC_INT_Init
*DEL*:00000000H   CODE     ---       SC_MDU_Init
      0100158EH   CODE     ---       SC_OPTION_Init
*DEL*:00000000H   CODE     ---       SC_PWM_Init
*DEL*:00000000H   CODE     ---       SC_PWR_Init
*DEL*:00000000H   CODE     ---       SC_TIM0_Init
*DEL*:00000000H   CODE     ---       SC_TIM1_Init
      010015D1H   CODE     ---       SC_TIM2_Init
*DEL*:00000000H   CODE     ---       SC_TIM3_Init
*DEL*:00000000H   CODE     ---       SC_TIM4_Init
*DEL*:00000000H   CODE     ---       SC_UART0_Init
*DEL*:00000000H   CODE     ---       SC_USCI0_Init
*DEL*:00000000H   CODE     ---       SC_USCI1_Init
*DEL*:00000000H   CODE     ---       SC_USCI2_Init
*DEL*:00000000H   CODE     ---       SC_WDT_Init
*SFR* 00000098H   DATA     BYTE      SCON
      00000022H.2 BIT      BIT       set_over_flag
      00000022H.1 BIT      BIT       set_start_flag
      00000035H   DATA     WORD      set_temper
*SFR* 00000098H.7 DATA     BIT       SM0
*SFR* 00000098H.6 DATA     BIT       SM1
*SFR* 00000098H.5 DATA     BIT       SM2
*SFR* 00000081H   DATA     BYTE      SP
      00000023H.7 BIT      BIT       spin_int1_flag
      00000024H.3 BIT      BIT       spin_left
      00000024H.6 BIT      BIT       spin_long
      00000025H.1 BIT      BIT       spin_long_left
      00000025H.0 BIT      BIT       spin_long_right
      00000024H.0 BIT      BIT       spin_right
      010015F0H   CODE     ---       spin_scan
      00000024H.7 BIT      BIT       spin_short
*SFR* 00000098H.3 DATA     BIT       TB8
*SFR* 000000C8H.4 DATA     BIT       TCLKX
*SFR* 00000088H   DATA     BYTE      TCON
      00000064H   DATA     BYTE      temp_collect_timer2
      00000026H.5 BIT      BIT       temp_judge_flag
      00000065H   DATA     WORD      temp_num
      00000026H.7 BIT      BIT       temp_over_flag
LX51 LINKER/LOCATER V4.66.66.0                                                        09/07/2020  22:21:36  PAGE 16


      00000061H   DATA     BYTE      temp_over_timer2
      00000026H.6 BIT      BIT       temp_start_flag
      00000018H   DATA     DWORD     Temper
*SFR* 00000088H.5 DATA     BIT       TF0
*SFR* 00000088H.7 DATA     BIT       TF1
*SFR* 000000C8H.7 DATA     BIT       TFX
*SFR* 0000008CH   DATA     BYTE      TH0
*SFR* 0000008DH   DATA     BYTE      TH1
*SFR* 000000CDH   DATA     BYTE      THX
*SFR* 00000098H.1 DATA     BIT       TI
*DEL*:00000000H   CODE     ---       TIM2_DeInit
      010013E8H   CODE     ---       time6_part
      00000023H.4 BIT      BIT       TIME_1000msFlag
      00000022H.3 BIT      BIT       TIME_100msFlag
      00000023H.5 BIT      BIT       TIME_10msFlag
      00000023H.0 BIT      BIT       TIME_150msFlag
      00000022H.4 BIT      BIT       TIME_200msFlag
      00000023H.1 BIT      BIT       TIME_2msFlag
      00000022H.5 BIT      BIT       TIME_300msFlag
      00000023H.2 BIT      BIT       TIME_3msFlag
      00000022H.6 BIT      BIT       TIME_400msFlag
      00000022H.7 BIT      BIT       TIME_500msFlag
      00000023H.6 BIT      BIT       TIME_50msFlag
      00000023H.3 BIT      BIT       TIME_5msFlag
      010014F5H   CODE     ---       Time_init
      0100184DH   CODE     ---       Timer0Interrupt
      0100184EH   CODE     ---       Timer1Interrupt
      01000CCCH   CODE     ---       Timer2Interrupt
      01001855H   CODE     ---       Timer3Interrupt
      01001856H   CODE     ---       Timer4Interrupt
*SFR* 0000008AH   DATA     BYTE      TL0
*SFR* 0000008BH   DATA     BYTE      TL1
*SFR* 000000CCH   DATA     BYTE      TLX
*SFR* 0000008EH   DATA     BYTE      TMCON
*SFR* 00000089H   DATA     BYTE      TMOD
*SFR* 00000088H.4 DATA     BIT       TR0
*SFR* 00000088H.6 DATA     BIT       TR1
*SFR* 000000C8H.2 DATA     BIT       TRX
*SFR* 000000C8H.1 DATA     BIT       TX
*SFR* 000000C8H   DATA     BYTE      TXCON
*SFR* 000000CEH   DATA     BYTE      TXINX
*SFR* 000000C9H   DATA     BYTE      TXMOD
      0100184FH   CODE     ---       UART0Interrupt
*SFR* 00000095H   DATA     BYTE      US0CON0
*SFR* 0000009DH   DATA     BYTE      US0CON1
*SFR* 0000009EH   DATA     BYTE      US0CON2
*SFR* 0000009FH   DATA     BYTE      US0CON3
*SFR* 000000A4H   DATA     BYTE      US1CON0
*SFR* 000000A5H   DATA     BYTE      US1CON1
*SFR* 000000A6H   DATA     BYTE      US1CON2
*SFR* 000000A7H   DATA     BYTE      US1CON3
*SFR* 000000C4H   DATA     BYTE      US2CON0
*SFR* 000000C5H   DATA     BYTE      US2CON1
*SFR* 000000C6H   DATA     BYTE      US2CON2
*SFR* 000000C7H   DATA     BYTE      US2CON3
      01001851H   CODE     ---       USCI0Interrupt
      01001857H   CODE     ---       USCI1Interrupt
      01001858H   CODE     ---       USCI2Interrupt
*SFR* 000000CFH   DATA     BYTE      WDTCON
      010017CFH   CODE     ---       wind_part



SYMBOL TABLE OF MODULE:  ..\Output\86box_temperature (MAIN)

LX51 LINKER/LOCATER V4.66.66.0                                                        09/07/2020  22:21:36  PAGE 17


      VALUE       REP       CLASS    TYPE      SYMBOL NAME
      ====================================================
      ---         MODULE    ---      ---       MAIN
      010017B5H   PUBLIC    CODE     ---       main
      000000C8H.2 SFRSYM    DATA     BIT       TRX
      000000FFH   SFRSYM    DATA     BYTE      OPREG
      00000080H   SFRSYM    DATA     BYTE      P0
      00000090H   SFRSYM    DATA     BYTE      P1
      000000A0H   SFRSYM    DATA     BYTE      P2
      000000A8H.4 SFRSYM    DATA     BIT       EUART
      0000008EH   SFRSYM    DATA     BYTE      TMCON
      000000B0H   SFRSYM    DATA     BYTE      P3
      000000D0H.6 SFRSYM    DATA     BIT       AC
      000000C0H   SFRSYM    DATA     BYTE      P4
      0000008FH   SFRSYM    DATA     BYTE      OTCON
      000000D8H   SFRSYM    DATA     BYTE      P5
      000000A8H.7 SFRSYM    DATA     BIT       EA
      000000C8H.5 SFRSYM    DATA     BIT       RCLKX
      000000C8H.4 SFRSYM    DATA     BIT       TCLKX
      000000C8H.3 SFRSYM    DATA     BIT       EXENX
      000000A8H.6 SFRSYM    DATA     BIT       EADC
      000000C9H   SFRSYM    DATA     BYTE      TXMOD
      000000C8H   SFRSYM    DATA     BYTE      TXCON
      000000A8H   SFRSYM    DATA     BYTE      IE
      00000085H   SFRSYM    DATA     BYTE      DPH1
      000000E9H   SFRSYM    DATA     BYTE      EXA0
      000000EAH   SFRSYM    DATA     BYTE      EXA1
      000000FEH   SFRSYM    DATA     BYTE      OPINX
      000000EBH   SFRSYM    DATA     BYTE      EXA2
      000000ECH   SFRSYM    DATA     BYTE      EXA3
      00000084H   SFRSYM    DATA     BYTE      DPL1
      000000C8H   SFRSYM    DATA     BIT       CP
      000000EFH   SFRSYM    DATA     BYTE      OPERCON
      0000009BH   SFRSYM    DATA     BYTE      P0PH
      000000B8H   SFRSYM    DATA     BYTE      IP
      00000092H   SFRSYM    DATA     BYTE      P1PH
      00000098H   SFRSYM    DATA     BIT       RI
      000000A2H   SFRSYM    DATA     BYTE      P2PH
      000000D0H.7 SFRSYM    DATA     BIT       CY
      000000B2H   SFRSYM    DATA     BYTE      P3PH
      00000098H.1 SFRSYM    DATA     BIT       TI
      000000CEH   SFRSYM    DATA     BYTE      TXINX
      000000C2H   SFRSYM    DATA     BYTE      P4PH
      000000B8H.1 SFRSYM    DATA     BIT       IPT0
      000000DAH   SFRSYM    DATA     BYTE      P5PH
      000000B8H.3 SFRSYM    DATA     BIT       IPT1
      000000B8H.5 SFRSYM    DATA     BIT       IPT2
      00000081H   SFRSYM    DATA     BYTE      SP
      000000D0H.2 SFRSYM    DATA     BIT       OV
      000000F4H   SFRSYM    DATA     BYTE      IAPADE
      0000009CH   SFRSYM    DATA     BYTE      P0VO
      00000094H   SFRSYM    DATA     BYTE      P1VO
      000000EEH   SFRSYM    DATA     BYTE      EXBH
      000000A3H   SFRSYM    DATA     BYTE      P2VO
      000000F3H   SFRSYM    DATA     BYTE      IAPADH
      000000B3H   SFRSYM    DATA     BYTE      P3VO
      000000ADH   SFRSYM    DATA     BYTE      ADCCON
      000000C8H.1 SFRSYM    DATA     BIT       TX
      000000EDH   SFRSYM    DATA     BYTE      EXBL
      000000F2H   SFRSYM    DATA     BYTE      IAPADL
      00000080H   SFRSYM    DATA     BIT       P00
      00000090H   SFRSYM    DATA     BIT       P10
      00000080H.1 SFRSYM    DATA     BIT       P01
      00000099H   SFRSYM    DATA     BYTE      SBUF
      00000087H   SFRSYM    DATA     BYTE      PCON
LX51 LINKER/LOCATER V4.66.66.0                                                        09/07/2020  22:21:36  PAGE 18


      000000A0H   SFRSYM    DATA     BIT       P20
      00000090H.1 SFRSYM    DATA     BIT       P11
      00000080H.2 SFRSYM    DATA     BIT       P02
      000000B6H   SFRSYM    DATA     BYTE      CMPCFG
      000000B0H   SFRSYM    DATA     BIT       P30
      000000A0H.1 SFRSYM    DATA     BIT       P21
      00000090H.2 SFRSYM    DATA     BIT       P12
      00000080H.3 SFRSYM    DATA     BIT       P03
      000000C0H   SFRSYM    DATA     BIT       P40
      000000B0H.1 SFRSYM    DATA     BIT       P31
      000000A0H.2 SFRSYM    DATA     BIT       P22
      00000090H.3 SFRSYM    DATA     BIT       P13
      00000080H.4 SFRSYM    DATA     BIT       P04
      00000098H   SFRSYM    DATA     BYTE      SCON
      000000D8H   SFRSYM    DATA     BIT       P50
      000000C0H.1 SFRSYM    DATA     BIT       P41
      000000B0H.2 SFRSYM    DATA     BIT       P32
      000000A0H.3 SFRSYM    DATA     BIT       P23
      00000090H.4 SFRSYM    DATA     BIT       P14
      00000080H.5 SFRSYM    DATA     BIT       P05
      000000F5H   SFRSYM    DATA     BYTE      IAPDAT
      00000088H   SFRSYM    DATA     BYTE      TCON
      00000089H   SFRSYM    DATA     BYTE      TMOD
      000000D8H.1 SFRSYM    DATA     BIT       P51
      000000C0H.2 SFRSYM    DATA     BIT       P42
      000000B0H.3 SFRSYM    DATA     BIT       P33
      000000A0H.4 SFRSYM    DATA     BIT       P24
      00000090H.5 SFRSYM    DATA     BIT       P15
      00000080H.6 SFRSYM    DATA     BIT       P06
      000000B8H   SFRSYM    DATA     BIT       IPINT0
      000000D8H.2 SFRSYM    DATA     BIT       P52
      000000C0H.3 SFRSYM    DATA     BIT       P43
      000000B0H.4 SFRSYM    DATA     BIT       P34
      000000A0H.5 SFRSYM    DATA     BIT       P25
      00000090H.6 SFRSYM    DATA     BIT       P16
      00000080H.7 SFRSYM    DATA     BIT       P07
      000000B8H.2 SFRSYM    DATA     BIT       IPINT1
      000000D8H.3 SFRSYM    DATA     BIT       P53
      000000C0H.4 SFRSYM    DATA     BIT       P44
      000000B0H.5 SFRSYM    DATA     BIT       P35
      000000A0H.6 SFRSYM    DATA     BIT       P26
      00000090H.7 SFRSYM    DATA     BIT       P17
      000000FDH   SFRSYM    DATA     BYTE      CRCREG
      000000D8H.4 SFRSYM    DATA     BIT       P54
      000000C0H.5 SFRSYM    DATA     BIT       P45
      000000B0H.6 SFRSYM    DATA     BIT       P36
      000000A0H.7 SFRSYM    DATA     BIT       P27
      000000D8H.5 SFRSYM    DATA     BIT       P55
      000000C0H.6 SFRSYM    DATA     BIT       P46
      000000B0H.7 SFRSYM    DATA     BIT       P37
      000000C0H.7 SFRSYM    DATA     BIT       P47
      000000C8H.6 SFRSYM    DATA     BIT       EXFX
      00000093H   SFRSYM    DATA     BYTE      DDRCON
      000000F6H   SFRSYM    DATA     BYTE      IAPCTL
      000000A9H   SFRSYM    DATA     BYTE      IE1
      000000AAH   SFRSYM    DATA     BYTE      IE2
      000000F0H   SFRSYM    DATA     BYTE      B
      000000B7H   SFRSYM    DATA     BYTE      CMPCON
      000000F1H   SFRSYM    DATA     BYTE      IAPKEY
      000000FBH   SFRSYM    DATA     BYTE      BTMCON
      000000D4H   SFRSYM    DATA     BYTE      PWMCFG
      000000E0H   SFRSYM    DATA     BYTE      ACC
      000000CBH   SFRSYM    DATA     BYTE      RCAPXH
      000000A8H.1 SFRSYM    DATA     BIT       ET0
      000000FCH   SFRSYM    DATA     BYTE      CRCINX
LX51 LINKER/LOCATER V4.66.66.0                                                        09/07/2020  22:21:36  PAGE 19


      00000088H.5 SFRSYM    DATA     BIT       TF0
      000000A8H.3 SFRSYM    DATA     BIT       ET1
      000000ABH   SFRSYM    DATA     BYTE      ADCCFG0
      000000B9H   SFRSYM    DATA     BYTE      IP1
      00000088H.7 SFRSYM    DATA     BIT       TF1
      000000A8H.5 SFRSYM    DATA     BIT       ET2
      000000ACH   SFRSYM    DATA     BYTE      ADCCFG1
      000000BAH   SFRSYM    DATA     BYTE      IP2
      00000098H.2 SFRSYM    DATA     BIT       RB8
      000000B5H   SFRSYM    DATA     BYTE      ADCCFG2
      000000CAH   SFRSYM    DATA     BYTE      RCAPXL
      0000008CH   SFRSYM    DATA     BYTE      TH0
      0000008DH   SFRSYM    DATA     BYTE      TH1
      00000098H.3 SFRSYM    DATA     BIT       TB8
      000000D0H   SFRSYM    DATA     BIT       P
      00000098H.7 SFRSYM    DATA     BIT       SM0
      0000008AH   SFRSYM    DATA     BYTE      TL0
      00000098H.6 SFRSYM    DATA     BIT       SM1
      000000CFH   SFRSYM    DATA     BYTE      WDTCON
      0000008BH   SFRSYM    DATA     BYTE      TL1
      00000098H.5 SFRSYM    DATA     BIT       SM2
      000000D5H   SFRSYM    DATA     BYTE      PWMDFR
      000000D0H.3 SFRSYM    DATA     BIT       RS0
      00000088H.4 SFRSYM    DATA     BIT       TR0
      000000D0H.4 SFRSYM    DATA     BIT       RS1
      000000D3H   SFRSYM    DATA     BYTE      PWMCON
      000000D7H   SFRSYM    DATA     BYTE      PWMMOD
      00000088H.6 SFRSYM    DATA     BIT       TR1
      000000B8H.4 SFRSYM    DATA     BIT       IPUART
      000000D6H   SFRSYM    DATA     BYTE      PWMFLT
      00000083H   SFRSYM    DATA     BYTE      DPH
      00000082H   SFRSYM    DATA     BYTE      DPL
      000000A8H   SFRSYM    DATA     BIT       EINT0
      0000009AH   SFRSYM    DATA     BYTE      P0CON
      000000A8H.2 SFRSYM    DATA     BIT       EINT1
      000000B8H.6 SFRSYM    DATA     BIT       IPADC
      000000B4H   SFRSYM    DATA     BYTE      INT0F
      00000091H   SFRSYM    DATA     BYTE      P1CON
      000000BCH   SFRSYM    DATA     BYTE      INT1F
      000000A1H   SFRSYM    DATA     BYTE      P2CON
      000000BEH   SFRSYM    DATA     BYTE      INT2F
      000000B1H   SFRSYM    DATA     BYTE      P3CON
      00000098H.4 SFRSYM    DATA     BIT       REN
      000000C1H   SFRSYM    DATA     BYTE      P4CON
      000000D9H   SFRSYM    DATA     BYTE      P5CON
      000000AFH   SFRSYM    DATA     BYTE      ADCVH
      00000086H   SFRSYM    DATA     BYTE      DPS
      00000095H   SFRSYM    DATA     BYTE      US0CON0
      000000F7H   SFRSYM    DATA     BYTE      EXADH
      000000A4H   SFRSYM    DATA     BYTE      US1CON0
      0000009DH   SFRSYM    DATA     BYTE      US0CON1
      000000AEH   SFRSYM    DATA     BYTE      ADCVL
      000000C4H   SFRSYM    DATA     BYTE      US2CON0
      000000A5H   SFRSYM    DATA     BYTE      US1CON1
      0000009EH   SFRSYM    DATA     BYTE      US0CON2
      000000C5H   SFRSYM    DATA     BYTE      US2CON1
      000000A6H   SFRSYM    DATA     BYTE      US1CON2
      0000009FH   SFRSYM    DATA     BYTE      US0CON3
      000000C6H   SFRSYM    DATA     BYTE      US2CON2
      000000A7H   SFRSYM    DATA     BYTE      US1CON3
      000000BBH   SFRSYM    DATA     BYTE      INT0R
      000000C7H   SFRSYM    DATA     BYTE      US2CON3
      000000BDH   SFRSYM    DATA     BYTE      INT1R
      000000BFH   SFRSYM    DATA     BYTE      INT2R
      000000C8H.7 SFRSYM    DATA     BIT       TFX
LX51 LINKER/LOCATER V4.66.66.0                                                        09/07/2020  22:21:36  PAGE 20


      00000096H   SFRSYM    DATA     BYTE      IOHCON0
      00000097H   SFRSYM    DATA     BYTE      IOHCON1
      000000CDH   SFRSYM    DATA     BYTE      THX
      000000D0H.5 SFRSYM    DATA     BIT       F0
      000000D0H.1 SFRSYM    DATA     BIT       F1
      000000CCH   SFRSYM    DATA     BYTE      TLX
      000000D0H   SFRSYM    DATA     BYTE      PSW
      00000054H   SYMBOL    DATA     CHAR      EC11_A_Last
      00000055H   SYMBOL    DATA     CHAR      EC11_B_Last
      00000056H   SYMBOL    DATA     CHAR      FLAG_EC11_KEY_LongClick
      00000057H   SYMBOL    DATA     CHAR      FLAG_EC11_KEY_ShotClick
      00000058H   SYMBOL    DATA     INT       EC11_KEY_COUNT
      0000005AH   SYMBOL    DATA     BYTE      EC11_NUM_SW
      0000005BH   SYMBOL    DATA     INT       EC11_KEY_DoubleClick_Count
      0000005DH   SYMBOL    DATA     CHAR      FLAG_EC11_KEY_DoubleClick
      0000005EH   SYMBOL    DATA     CHAR      EC11_Type

      010017B5H   BLOCK     CODE     ---       LVL=0
      010017B5H   LINE      CODE     ---       #61
      010017B5H   LINE      CODE     ---       #62
      010017B5H   LINE      CODE     ---       #64
      010017B8H   LINE      CODE     ---       #66
      010017BBH   LINE      CODE     ---       #68
      010017BBH   LINE      CODE     ---       #69
      010017BBH   LINE      CODE     ---       #71
      010017BDH   LINE      CODE     ---       #72
      010017C0H   LINE      CODE     ---       #74
      ---         BLOCKEND  ---      ---       LVL=0

      ---         MODULE    ---      ---       SC_INIT
      0100151FH   PUBLIC    CODE     ---       SC_DDIC_Init
      01001119H   PUBLIC    CODE     ---       SC_INT_Init
      010015D1H   PUBLIC    CODE     ---       SC_TIM2_Init
      0100137DH   PUBLIC    CODE     ---       SC_GPIO_Init
      0100158EH   PUBLIC    CODE     ---       SC_OPTION_Init
      0100164AH   PUBLIC    CODE     ---       SC_Init
      000000C8H.2 SFRSYM    DATA     BIT       TRX
      000000FFH   SFRSYM    DATA     BYTE      OPREG
      00000080H   SFRSYM    DATA     BYTE      P0
      00000090H   SFRSYM    DATA     BYTE      P1
      000000A0H   SFRSYM    DATA     BYTE      P2
      000000A8H.4 SFRSYM    DATA     BIT       EUART
      0000008EH   SFRSYM    DATA     BYTE      TMCON
      000000B0H   SFRSYM    DATA     BYTE      P3
      000000D0H.6 SFRSYM    DATA     BIT       AC
      000000C0H   SFRSYM    DATA     BYTE      P4
      0000008FH   SFRSYM    DATA     BYTE      OTCON
      000000D8H   SFRSYM    DATA     BYTE      P5
      000000A8H.7 SFRSYM    DATA     BIT       EA
      000000C8H.5 SFRSYM    DATA     BIT       RCLKX
      000000C8H.4 SFRSYM    DATA     BIT       TCLKX
      000000C8H.3 SFRSYM    DATA     BIT       EXENX
      000000A8H.6 SFRSYM    DATA     BIT       EADC
      000000C9H   SFRSYM    DATA     BYTE      TXMOD
      000000C8H   SFRSYM    DATA     BYTE      TXCON
      000000A8H   SFRSYM    DATA     BYTE      IE
      00000085H   SFRSYM    DATA     BYTE      DPH1
      000000E9H   SFRSYM    DATA     BYTE      EXA0
      000000EAH   SFRSYM    DATA     BYTE      EXA1
      000000FEH   SFRSYM    DATA     BYTE      OPINX
      000000EBH   SFRSYM    DATA     BYTE      EXA2
      000000ECH   SFRSYM    DATA     BYTE      EXA3
      00000084H   SFRSYM    DATA     BYTE      DPL1
      000000C8H   SFRSYM    DATA     BIT       CP
      000000EFH   SFRSYM    DATA     BYTE      OPERCON
LX51 LINKER/LOCATER V4.66.66.0                                                        09/07/2020  22:21:36  PAGE 21


      0000009BH   SFRSYM    DATA     BYTE      P0PH
      000000B8H   SFRSYM    DATA     BYTE      IP
      00000092H   SFRSYM    DATA     BYTE      P1PH
      00000098H   SFRSYM    DATA     BIT       RI
      000000A2H   SFRSYM    DATA     BYTE      P2PH
      000000D0H.7 SFRSYM    DATA     BIT       CY
      000000B2H   SFRSYM    DATA     BYTE      P3PH
      00000098H.1 SFRSYM    DATA     BIT       TI
      000000CEH   SFRSYM    DATA     BYTE      TXINX
      000000C2H   SFRSYM    DATA     BYTE      P4PH
      000000B8H.1 SFRSYM    DATA     BIT       IPT0
      000000DAH   SFRSYM    DATA     BYTE      P5PH
      000000B8H.3 SFRSYM    DATA     BIT       IPT1
      000000B8H.5 SFRSYM    DATA     BIT       IPT2
      00000081H   SFRSYM    DATA     BYTE      SP
      000000D0H.2 SFRSYM    DATA     BIT       OV
      000000F4H   SFRSYM    DATA     BYTE      IAPADE
      0000009CH   SFRSYM    DATA     BYTE      P0VO
      00000094H   SFRSYM    DATA     BYTE      P1VO
      000000EEH   SFRSYM    DATA     BYTE      EXBH
      000000A3H   SFRSYM    DATA     BYTE      P2VO
      000000F3H   SFRSYM    DATA     BYTE      IAPADH
      000000B3H   SFRSYM    DATA     BYTE      P3VO
      000000ADH   SFRSYM    DATA     BYTE      ADCCON
      000000C8H.1 SFRSYM    DATA     BIT       TX
      000000EDH   SFRSYM    DATA     BYTE      EXBL
      000000F2H   SFRSYM    DATA     BYTE      IAPADL
      00000080H.6 SFRSYM    DATA     BIT       NST1001_DQ
      00000080H   SFRSYM    DATA     BIT       P00
      00000090H   SFRSYM    DATA     BIT       P10
      00000080H.1 SFRSYM    DATA     BIT       P01
      00000099H   SFRSYM    DATA     BYTE      SBUF
      00000087H   SFRSYM    DATA     BYTE      PCON
      000000D8H.3 SFRSYM    DATA     BIT       NST1001_IO
      000000A0H   SFRSYM    DATA     BIT       P20
      00000090H.1 SFRSYM    DATA     BIT       P11
      00000080H.2 SFRSYM    DATA     BIT       P02
      000000B6H   SFRSYM    DATA     BYTE      CMPCFG
      000000B0H   SFRSYM    DATA     BIT       P30
      000000A0H.1 SFRSYM    DATA     BIT       P21
      00000090H.2 SFRSYM    DATA     BIT       P12
      00000080H.3 SFRSYM    DATA     BIT       P03
      000000C0H   SFRSYM    DATA     BIT       P40
      000000B0H.1 SFRSYM    DATA     BIT       P31
      000000A0H.2 SFRSYM    DATA     BIT       P22
      00000090H.3 SFRSYM    DATA     BIT       P13
      00000080H.4 SFRSYM    DATA     BIT       P04
      00000098H   SFRSYM    DATA     BYTE      SCON
      000000D8H   SFRSYM    DATA     BIT       P50
      000000C0H.1 SFRSYM    DATA     BIT       P41
      000000B0H.2 SFRSYM    DATA     BIT       P32
      000000A0H.3 SFRSYM    DATA     BIT       P23
      00000090H.4 SFRSYM    DATA     BIT       P14
      00000080H.5 SFRSYM    DATA     BIT       P05
      000000F5H   SFRSYM    DATA     BYTE      IAPDAT
      00000088H   SFRSYM    DATA     BYTE      TCON
      00000089H   SFRSYM    DATA     BYTE      TMOD
      000000D8H.1 SFRSYM    DATA     BIT       P51
      000000C0H.2 SFRSYM    DATA     BIT       P42
      000000B0H.3 SFRSYM    DATA     BIT       P33
      000000A0H.4 SFRSYM    DATA     BIT       P24
      00000090H.5 SFRSYM    DATA     BIT       P15
      00000080H.6 SFRSYM    DATA     BIT       P06
      000000B8H   SFRSYM    DATA     BIT       IPINT0
      000000D8H.2 SFRSYM    DATA     BIT       P52
LX51 LINKER/LOCATER V4.66.66.0                                                        09/07/2020  22:21:36  PAGE 22


      000000C0H.3 SFRSYM    DATA     BIT       P43
      000000B0H.4 SFRSYM    DATA     BIT       P34
      000000A0H.5 SFRSYM    DATA     BIT       P25
      00000090H.6 SFRSYM    DATA     BIT       P16
      00000080H.7 SFRSYM    DATA     BIT       P07
      000000B8H.2 SFRSYM    DATA     BIT       IPINT1
      000000D8H.3 SFRSYM    DATA     BIT       P53
      000000C0H.4 SFRSYM    DATA     BIT       P44
      000000B0H.5 SFRSYM    DATA     BIT       P35
      000000A0H.6 SFRSYM    DATA     BIT       P26
      00000090H.7 SFRSYM    DATA     BIT       P17
      000000FDH   SFRSYM    DATA     BYTE      CRCREG
      000000D8H.4 SFRSYM    DATA     BIT       P54
      000000C0H.5 SFRSYM    DATA     BIT       P45
      000000B0H.6 SFRSYM    DATA     BIT       P36
      000000A0H.7 SFRSYM    DATA     BIT       P27
      000000D8H.5 SFRSYM    DATA     BIT       P55
      000000C0H.6 SFRSYM    DATA     BIT       P46
      000000B0H.7 SFRSYM    DATA     BIT       P37
      000000C0H.7 SFRSYM    DATA     BIT       P47
      000000C8H.6 SFRSYM    DATA     BIT       EXFX
      00000093H   SFRSYM    DATA     BYTE      DDRCON
      000000F6H   SFRSYM    DATA     BYTE      IAPCTL
      000000A9H   SFRSYM    DATA     BYTE      IE1
      000000AAH   SFRSYM    DATA     BYTE      IE2
      000000F0H   SFRSYM    DATA     BYTE      B
      000000B7H   SFRSYM    DATA     BYTE      CMPCON
      000000F1H   SFRSYM    DATA     BYTE      IAPKEY
      000000FBH   SFRSYM    DATA     BYTE      BTMCON
      000000D4H   SFRSYM    DATA     BYTE      PWMCFG
      000000E0H   SFRSYM    DATA     BYTE      ACC
      000000CBH   SFRSYM    DATA     BYTE      RCAPXH
      000000A8H.1 SFRSYM    DATA     BIT       ET0
      000000FCH   SFRSYM    DATA     BYTE      CRCINX
      00000088H.5 SFRSYM    DATA     BIT       TF0
      000000A8H.3 SFRSYM    DATA     BIT       ET1
      000000ABH   SFRSYM    DATA     BYTE      ADCCFG0
      000000B9H   SFRSYM    DATA     BYTE      IP1
      00000088H.7 SFRSYM    DATA     BIT       TF1
      000000A8H.5 SFRSYM    DATA     BIT       ET2
      000000ACH   SFRSYM    DATA     BYTE      ADCCFG1
      000000BAH   SFRSYM    DATA     BYTE      IP2
      00000098H.2 SFRSYM    DATA     BIT       RB8
      000000B5H   SFRSYM    DATA     BYTE      ADCCFG2
      000000CAH   SFRSYM    DATA     BYTE      RCAPXL
      0000008CH   SFRSYM    DATA     BYTE      TH0
      0000008DH   SFRSYM    DATA     BYTE      TH1
      00000098H.3 SFRSYM    DATA     BIT       TB8
      000000D0H   SFRSYM    DATA     BIT       P
      00000098H.7 SFRSYM    DATA     BIT       SM0
      0000008AH   SFRSYM    DATA     BYTE      TL0
      00000098H.6 SFRSYM    DATA     BIT       SM1
      000000CFH   SFRSYM    DATA     BYTE      WDTCON
      0000008BH   SFRSYM    DATA     BYTE      TL1
      00000098H.5 SFRSYM    DATA     BIT       SM2
      000000D5H   SFRSYM    DATA     BYTE      PWMDFR
      000000D0H.3 SFRSYM    DATA     BIT       RS0
      00000088H.4 SFRSYM    DATA     BIT       TR0
      000000D0H.4 SFRSYM    DATA     BIT       RS1
      000000D3H   SFRSYM    DATA     BYTE      PWMCON
      000000D7H   SFRSYM    DATA     BYTE      PWMMOD
      00000088H.6 SFRSYM    DATA     BIT       TR1
      000000B8H.4 SFRSYM    DATA     BIT       IPUART
      000000D6H   SFRSYM    DATA     BYTE      PWMFLT
      00000083H   SFRSYM    DATA     BYTE      DPH
LX51 LINKER/LOCATER V4.66.66.0                                                        09/07/2020  22:21:36  PAGE 23


      00000082H   SFRSYM    DATA     BYTE      DPL
      000000A8H   SFRSYM    DATA     BIT       EINT0
      0000009AH   SFRSYM    DATA     BYTE      P0CON
      000000A8H.2 SFRSYM    DATA     BIT       EINT1
      000000B8H.6 SFRSYM    DATA     BIT       IPADC
      000000B4H   SFRSYM    DATA     BYTE      INT0F
      00000091H   SFRSYM    DATA     BYTE      P1CON
      000000BCH   SFRSYM    DATA     BYTE      INT1F
      000000A1H   SFRSYM    DATA     BYTE      P2CON
      000000BEH   SFRSYM    DATA     BYTE      INT2F
      000000B1H   SFRSYM    DATA     BYTE      P3CON
      00000098H.4 SFRSYM    DATA     BIT       REN
      000000C1H   SFRSYM    DATA     BYTE      P4CON
      000000D9H   SFRSYM    DATA     BYTE      P5CON
      000000AFH   SFRSYM    DATA     BYTE      ADCVH
      00000086H   SFRSYM    DATA     BYTE      DPS
      00000095H   SFRSYM    DATA     BYTE      US0CON0
      000000F7H   SFRSYM    DATA     BYTE      EXADH
      000000A4H   SFRSYM    DATA     BYTE      US1CON0
      0000009DH   SFRSYM    DATA     BYTE      US0CON1
      000000AEH   SFRSYM    DATA     BYTE      ADCVL
      000000C4H   SFRSYM    DATA     BYTE      US2CON0
      000000A5H   SFRSYM    DATA     BYTE      US1CON1
      0000009EH   SFRSYM    DATA     BYTE      US0CON2
      000000C5H   SFRSYM    DATA     BYTE      US2CON1
      000000A6H   SFRSYM    DATA     BYTE      US1CON2
      0000009FH   SFRSYM    DATA     BYTE      US0CON3
      000000C6H   SFRSYM    DATA     BYTE      US2CON2
      000000A7H   SFRSYM    DATA     BYTE      US1CON3
      000000BBH   SFRSYM    DATA     BYTE      INT0R
      000000C7H   SFRSYM    DATA     BYTE      US2CON3
      000000BDH   SFRSYM    DATA     BYTE      INT1R
      000000BFH   SFRSYM    DATA     BYTE      INT2R
      000000C8H.7 SFRSYM    DATA     BIT       TFX
      00000096H   SFRSYM    DATA     BYTE      IOHCON0
      00000097H   SFRSYM    DATA     BYTE      IOHCON1
      000000CDH   SFRSYM    DATA     BYTE      THX
      000000D0H.5 SFRSYM    DATA     BIT       F0
      000000D0H.1 SFRSYM    DATA     BIT       F1
      000000CCH   SFRSYM    DATA     BYTE      TLX
      000000D0H   SFRSYM    DATA     BYTE      PSW

      0100164AH   BLOCK     CODE     ---       LVL=0
      0100164AH   LINE      CODE     ---       #18
      0100164AH   LINE      CODE     ---       #19
      0100164AH   LINE      CODE     ---       #21
      0100164DH   LINE      CODE     ---       #22
      01001650H   LINE      CODE     ---       #23
      01001653H   LINE      CODE     ---       #24
      01001656H   LINE      CODE     ---       #25
      01001659H   LINE      CODE     ---       #26
      0100165CH   LINE      CODE     ---       #27
      0100165FH   LINE      CODE     ---       #30
      01001661H   LINE      CODE     ---       #31
      ---         BLOCKEND  ---      ---       LVL=0

      0100158EH   BLOCK     CODE     ---       LVL=0
      0100158EH   LINE      CODE     ---       #39
      0100158EH   LINE      CODE     ---       #40
      0100158EH   LINE      CODE     ---       #42
      01001593H   LINE      CODE     ---       #43
      01001598H   LINE      CODE     ---       #44
      0100159DH   LINE      CODE     ---       #45
      010015A2H   LINE      CODE     ---       #46
      010015A7H   LINE      CODE     ---       #47
LX51 LINKER/LOCATER V4.66.66.0                                                        09/07/2020  22:21:36  PAGE 24


      010015ACH   LINE      CODE     ---       #48
      ---         BLOCKEND  ---      ---       LVL=0

      0100137DH   BLOCK     CODE     ---       LVL=0
      0100137DH   LINE      CODE     ---       #58
      0100137DH   LINE      CODE     ---       #59
      0100137DH   LINE      CODE     ---       #61
      01001386H   LINE      CODE     ---       #63
      0100138FH   LINE      CODE     ---       #64
      01001398H   LINE      CODE     ---       #65
      010013A1H   LINE      CODE     ---       #66
      010013AAH   LINE      CODE     ---       #67
      ---         BLOCKEND  ---      ---       LVL=0

      010015D1H   BLOCK     CODE     ---       LVL=0
      010015D1H   LINE      CODE     ---       #110
      010015D1H   LINE      CODE     ---       #111
      010015D1H   LINE      CODE     ---       #113
      010015D8H   LINE      CODE     ---       #114
      010015DDH   LINE      CODE     ---       #116
      010015E4H   LINE      CODE     ---       #117
      010015EBH   LINE      CODE     ---       #118
      ---         BLOCKEND  ---      ---       LVL=0

      01001119H   BLOCK     CODE     ---       LVL=0
      01001119H   LINE      CODE     ---       #158
      01001119H   LINE      CODE     ---       #159
      01001119H   LINE      CODE     ---       #161
      01001122H   LINE      CODE     ---       #162
      01001129H   LINE      CODE     ---       #163
      01001130H   LINE      CODE     ---       #165
      01001139H   LINE      CODE     ---       #166
      01001142H   LINE      CODE     ---       #167
      0100114BH   LINE      CODE     ---       #168
      01001152H   LINE      CODE     ---       #169
      01001159H   LINE      CODE     ---       #171
      01001162H   LINE      CODE     ---       #172
      0100116BH   LINE      CODE     ---       #173
      01001172H   LINE      CODE     ---       #174
      01001178H   LINE      CODE     ---       #175
      0100117AH   LINE      CODE     ---       #176
      0100117CH   LINE      CODE     ---       #179
      ---         BLOCKEND  ---      ---       LVL=0

      0100151FH   BLOCK     CODE     ---       LVL=0
      0100151FH   LINE      CODE     ---       #282
      0100151FH   LINE      CODE     ---       #283
      0100151FH   LINE      CODE     ---       #285
      01001524H   LINE      CODE     ---       #286
      01001533H   LINE      CODE     ---       #287
      0100153CH   LINE      CODE     ---       #288
      01001541H   LINE      CODE     ---       #289
      ---         BLOCKEND  ---      ---       LVL=0

      ---         MODULE    ---      ---       SC_IT
      00000023H.6 PUBLIC    BIT      BIT       TIME_50msFlag
      00000023H.5 PUBLIC    BIT      BIT       TIME_10msFlag
      0000004DH   PUBLIC    DATA     WORD      blink_start_count
      00000023H.4 PUBLIC    BIT      BIT       TIME_1000msFlag
      00000023H.3 PUBLIC    BIT      BIT       TIME_5msFlag
      00000023H.2 PUBLIC    BIT      BIT       TIME_3msFlag
      00000023H.1 PUBLIC    BIT      BIT       TIME_2msFlag
      00000023H.0 PUBLIC    BIT      BIT       TIME_150msFlag
      00000022H.7 PUBLIC    BIT      BIT       TIME_500msFlag
      00000022H.6 PUBLIC    BIT      BIT       TIME_400msFlag
LX51 LINKER/LOCATER V4.66.66.0                                                        09/07/2020  22:21:36  PAGE 25


      00000022H.5 PUBLIC    BIT      BIT       TIME_300msFlag
      00000022H.4 PUBLIC    BIT      BIT       TIME_200msFlag
      00000022H.3 PUBLIC    BIT      BIT       TIME_100msFlag
      01001858H   PUBLIC    CODE     ---       USCI2Interrupt
      01001857H   PUBLIC    CODE     ---       USCI1Interrupt
      01001856H   PUBLIC    CODE     ---       Timer4Interrupt
      01001855H   PUBLIC    CODE     ---       Timer3Interrupt
      01001854H   PUBLIC    CODE     ---       ACMPInterrupt
      01001844H   PUBLIC    CODE     ---       INT2Interrupt
      01001853H   PUBLIC    CODE     ---       BTMInterrupt
      01001852H   PUBLIC    CODE     ---       PWMInterrupt
      01001851H   PUBLIC    CODE     ---       USCI0Interrupt
      01001850H   PUBLIC    CODE     ---       ADCInterrupt
      01000CCCH   PUBLIC    CODE     ---       Timer2Interrupt
      0100184FH   PUBLIC    CODE     ---       UART0Interrupt
      0100184EH   PUBLIC    CODE     ---       Timer1Interrupt
      01001849H   PUBLIC    CODE     ---       INT1Interrupt
      0100184DH   PUBLIC    CODE     ---       Timer0Interrupt
      0100172EH   PUBLIC    CODE     ---       INT0Interrupt
      000000C8H.2 SFRSYM    DATA     BIT       TRX
      000000FFH   SFRSYM    DATA     BYTE      OPREG
      00000080H   SFRSYM    DATA     BYTE      P0
      00000090H   SFRSYM    DATA     BYTE      P1
      000000A0H   SFRSYM    DATA     BYTE      P2
      000000A8H.4 SFRSYM    DATA     BIT       EUART
      0000008EH   SFRSYM    DATA     BYTE      TMCON
      000000B0H   SFRSYM    DATA     BYTE      P3
      000000D0H.6 SFRSYM    DATA     BIT       AC
      000000C0H   SFRSYM    DATA     BYTE      P4
      0000008FH   SFRSYM    DATA     BYTE      OTCON
      000000D8H   SFRSYM    DATA     BYTE      P5
      000000A8H.7 SFRSYM    DATA     BIT       EA
      000000C8H.5 SFRSYM    DATA     BIT       RCLKX
      000000C8H.4 SFRSYM    DATA     BIT       TCLKX
      000000C8H.3 SFRSYM    DATA     BIT       EXENX
      000000A8H.6 SFRSYM    DATA     BIT       EADC
      000000C9H   SFRSYM    DATA     BYTE      TXMOD
      000000C8H   SFRSYM    DATA     BYTE      TXCON
      000000A8H   SFRSYM    DATA     BYTE      IE
      00000085H   SFRSYM    DATA     BYTE      DPH1
      000000E9H   SFRSYM    DATA     BYTE      EXA0
      000000EAH   SFRSYM    DATA     BYTE      EXA1
      000000FEH   SFRSYM    DATA     BYTE      OPINX
      000000EBH   SFRSYM    DATA     BYTE      EXA2
      000000ECH   SFRSYM    DATA     BYTE      EXA3
      00000084H   SFRSYM    DATA     BYTE      DPL1
      000000C8H   SFRSYM    DATA     BIT       CP
      000000EFH   SFRSYM    DATA     BYTE      OPERCON
      0000009BH   SFRSYM    DATA     BYTE      P0PH
      000000B8H   SFRSYM    DATA     BYTE      IP
      00000092H   SFRSYM    DATA     BYTE      P1PH
      00000098H   SFRSYM    DATA     BIT       RI
      000000A2H   SFRSYM    DATA     BYTE      P2PH
      000000D0H.7 SFRSYM    DATA     BIT       CY
      000000B2H   SFRSYM    DATA     BYTE      P3PH
      00000098H.1 SFRSYM    DATA     BIT       TI
      000000CEH   SFRSYM    DATA     BYTE      TXINX
      000000C2H   SFRSYM    DATA     BYTE      P4PH
      000000B8H.1 SFRSYM    DATA     BIT       IPT0
      000000DAH   SFRSYM    DATA     BYTE      P5PH
      000000B8H.3 SFRSYM    DATA     BIT       IPT1
      000000B8H.5 SFRSYM    DATA     BIT       IPT2
      00000081H   SFRSYM    DATA     BYTE      SP
      000000D0H.2 SFRSYM    DATA     BIT       OV
      000000F4H   SFRSYM    DATA     BYTE      IAPADE
LX51 LINKER/LOCATER V4.66.66.0                                                        09/07/2020  22:21:36  PAGE 26


      0000009CH   SFRSYM    DATA     BYTE      P0VO
      00000094H   SFRSYM    DATA     BYTE      P1VO
      000000EEH   SFRSYM    DATA     BYTE      EXBH
      000000A3H   SFRSYM    DATA     BYTE      P2VO
      000000F3H   SFRSYM    DATA     BYTE      IAPADH
      000000B3H   SFRSYM    DATA     BYTE      P3VO
      000000ADH   SFRSYM    DATA     BYTE      ADCCON
      000000C8H.1 SFRSYM    DATA     BIT       TX
      000000EDH   SFRSYM    DATA     BYTE      EXBL
      000000F2H   SFRSYM    DATA     BYTE      IAPADL
      00000080H.6 SFRSYM    DATA     BIT       NST1001_DQ
      00000080H   SFRSYM    DATA     BIT       P00
      00000090H   SFRSYM    DATA     BIT       P10
      00000080H.1 SFRSYM    DATA     BIT       P01
      00000099H   SFRSYM    DATA     BYTE      SBUF
      00000087H   SFRSYM    DATA     BYTE      PCON
      000000D8H.3 SFRSYM    DATA     BIT       NST1001_IO
      000000A0H   SFRSYM    DATA     BIT       P20
      00000090H.1 SFRSYM    DATA     BIT       P11
      00000080H.2 SFRSYM    DATA     BIT       P02
      000000B6H   SFRSYM    DATA     BYTE      CMPCFG
      000000B0H   SFRSYM    DATA     BIT       P30
      000000A0H.1 SFRSYM    DATA     BIT       P21
      00000090H.2 SFRSYM    DATA     BIT       P12
      00000080H.3 SFRSYM    DATA     BIT       P03
      000000C0H   SFRSYM    DATA     BIT       P40
      000000B0H.1 SFRSYM    DATA     BIT       P31
      000000A0H.2 SFRSYM    DATA     BIT       P22
      00000090H.3 SFRSYM    DATA     BIT       P13
      00000080H.4 SFRSYM    DATA     BIT       P04
      00000098H   SFRSYM    DATA     BYTE      SCON
      000000D8H   SFRSYM    DATA     BIT       P50
      000000C0H.1 SFRSYM    DATA     BIT       P41
      000000B0H.2 SFRSYM    DATA     BIT       P32
      000000A0H.3 SFRSYM    DATA     BIT       P23
      00000090H.4 SFRSYM    DATA     BIT       P14
      00000080H.5 SFRSYM    DATA     BIT       P05
      000000F5H   SFRSYM    DATA     BYTE      IAPDAT
      00000088H   SFRSYM    DATA     BYTE      TCON
      00000089H   SFRSYM    DATA     BYTE      TMOD
      000000D8H.1 SFRSYM    DATA     BIT       P51
      000000C0H.2 SFRSYM    DATA     BIT       P42
      000000B0H.3 SFRSYM    DATA     BIT       P33
      000000A0H.4 SFRSYM    DATA     BIT       P24
      00000090H.5 SFRSYM    DATA     BIT       P15
      00000080H.6 SFRSYM    DATA     BIT       P06
      000000B8H   SFRSYM    DATA     BIT       IPINT0
      000000D8H.2 SFRSYM    DATA     BIT       P52
      000000C0H.3 SFRSYM    DATA     BIT       P43
      000000B0H.4 SFRSYM    DATA     BIT       P34
      000000A0H.5 SFRSYM    DATA     BIT       P25
      00000090H.6 SFRSYM    DATA     BIT       P16
      00000080H.7 SFRSYM    DATA     BIT       P07
      000000B8H.2 SFRSYM    DATA     BIT       IPINT1
      000000D8H.3 SFRSYM    DATA     BIT       P53
      000000C0H.4 SFRSYM    DATA     BIT       P44
      000000B0H.5 SFRSYM    DATA     BIT       P35
      000000A0H.6 SFRSYM    DATA     BIT       P26
      00000090H.7 SFRSYM    DATA     BIT       P17
      000000FDH   SFRSYM    DATA     BYTE      CRCREG
      000000D8H.4 SFRSYM    DATA     BIT       P54
      000000C0H.5 SFRSYM    DATA     BIT       P45
      000000B0H.6 SFRSYM    DATA     BIT       P36
      000000A0H.7 SFRSYM    DATA     BIT       P27
      000000D8H.5 SFRSYM    DATA     BIT       P55
LX51 LINKER/LOCATER V4.66.66.0                                                        09/07/2020  22:21:36  PAGE 27


      000000C0H.6 SFRSYM    DATA     BIT       P46
      000000B0H.7 SFRSYM    DATA     BIT       P37
      000000C0H.7 SFRSYM    DATA     BIT       P47
      000000C8H.6 SFRSYM    DATA     BIT       EXFX
      00000093H   SFRSYM    DATA     BYTE      DDRCON
      000000F6H   SFRSYM    DATA     BYTE      IAPCTL
      000000A9H   SFRSYM    DATA     BYTE      IE1
      000000AAH   SFRSYM    DATA     BYTE      IE2
      000000F0H   SFRSYM    DATA     BYTE      B
      000000B7H   SFRSYM    DATA     BYTE      CMPCON
      000000F1H   SFRSYM    DATA     BYTE      IAPKEY
      000000FBH   SFRSYM    DATA     BYTE      BTMCON
      000000D4H   SFRSYM    DATA     BYTE      PWMCFG
      000000E0H   SFRSYM    DATA     BYTE      ACC
      000000CBH   SFRSYM    DATA     BYTE      RCAPXH
      000000A8H.1 SFRSYM    DATA     BIT       ET0
      000000FCH   SFRSYM    DATA     BYTE      CRCINX
      00000088H.5 SFRSYM    DATA     BIT       TF0
      000000A8H.3 SFRSYM    DATA     BIT       ET1
      000000ABH   SFRSYM    DATA     BYTE      ADCCFG0
      000000B9H   SFRSYM    DATA     BYTE      IP1
      00000088H.7 SFRSYM    DATA     BIT       TF1
      000000A8H.5 SFRSYM    DATA     BIT       ET2
      000000ACH   SFRSYM    DATA     BYTE      ADCCFG1
      000000BAH   SFRSYM    DATA     BYTE      IP2
      00000098H.2 SFRSYM    DATA     BIT       RB8
      000000B5H   SFRSYM    DATA     BYTE      ADCCFG2
      000000CAH   SFRSYM    DATA     BYTE      RCAPXL
      0000008CH   SFRSYM    DATA     BYTE      TH0
      0000008DH   SFRSYM    DATA     BYTE      TH1
      00000098H.3 SFRSYM    DATA     BIT       TB8
      000000D0H   SFRSYM    DATA     BIT       P
      00000098H.7 SFRSYM    DATA     BIT       SM0
      0000008AH   SFRSYM    DATA     BYTE      TL0
      00000098H.6 SFRSYM    DATA     BIT       SM1
      000000CFH   SFRSYM    DATA     BYTE      WDTCON
      0000008BH   SFRSYM    DATA     BYTE      TL1
      00000098H.5 SFRSYM    DATA     BIT       SM2
      000000D5H   SFRSYM    DATA     BYTE      PWMDFR
      000000D0H.3 SFRSYM    DATA     BIT       RS0
      00000088H.4 SFRSYM    DATA     BIT       TR0
      000000D0H.4 SFRSYM    DATA     BIT       RS1
      000000D3H   SFRSYM    DATA     BYTE      PWMCON
      000000D7H   SFRSYM    DATA     BYTE      PWMMOD
      00000088H.6 SFRSYM    DATA     BIT       TR1
      000000B8H.4 SFRSYM    DATA     BIT       IPUART
      000000D6H   SFRSYM    DATA     BYTE      PWMFLT
      00000083H   SFRSYM    DATA     BYTE      DPH
      00000082H   SFRSYM    DATA     BYTE      DPL
      000000A8H   SFRSYM    DATA     BIT       EINT0
      0000009AH   SFRSYM    DATA     BYTE      P0CON
      000000A8H.2 SFRSYM    DATA     BIT       EINT1
      000000B8H.6 SFRSYM    DATA     BIT       IPADC
      000000B4H   SFRSYM    DATA     BYTE      INT0F
      00000091H   SFRSYM    DATA     BYTE      P1CON
      000000BCH   SFRSYM    DATA     BYTE      INT1F
      000000A1H   SFRSYM    DATA     BYTE      P2CON
      000000BEH   SFRSYM    DATA     BYTE      INT2F
      000000B1H   SFRSYM    DATA     BYTE      P3CON
      00000098H.4 SFRSYM    DATA     BIT       REN
      000000C1H   SFRSYM    DATA     BYTE      P4CON
      000000D9H   SFRSYM    DATA     BYTE      P5CON
      000000AFH   SFRSYM    DATA     BYTE      ADCVH
      00000086H   SFRSYM    DATA     BYTE      DPS
      00000095H   SFRSYM    DATA     BYTE      US0CON0
LX51 LINKER/LOCATER V4.66.66.0                                                        09/07/2020  22:21:36  PAGE 28


      000000F7H   SFRSYM    DATA     BYTE      EXADH
      000000A4H   SFRSYM    DATA     BYTE      US1CON0
      0000009DH   SFRSYM    DATA     BYTE      US0CON1
      000000AEH   SFRSYM    DATA     BYTE      ADCVL
      000000C4H   SFRSYM    DATA     BYTE      US2CON0
      000000A5H   SFRSYM    DATA     BYTE      US1CON1
      0000009EH   SFRSYM    DATA     BYTE      US0CON2
      000000C5H   SFRSYM    DATA     BYTE      US2CON1
      000000A6H   SFRSYM    DATA     BYTE      US1CON2
      0000009FH   SFRSYM    DATA     BYTE      US0CON3
      000000C6H   SFRSYM    DATA     BYTE      US2CON2
      000000A7H   SFRSYM    DATA     BYTE      US1CON3
      000000BBH   SFRSYM    DATA     BYTE      INT0R
      000000C7H   SFRSYM    DATA     BYTE      US2CON3
      000000BDH   SFRSYM    DATA     BYTE      INT1R
      000000BFH   SFRSYM    DATA     BYTE      INT2R
      000000C8H.7 SFRSYM    DATA     BIT       TFX
      00000096H   SFRSYM    DATA     BYTE      IOHCON0
      00000097H   SFRSYM    DATA     BYTE      IOHCON1
      000000CDH   SFRSYM    DATA     BYTE      THX
      000000D0H.5 SFRSYM    DATA     BIT       F0
      000000D0H.1 SFRSYM    DATA     BIT       F1
      000000CCH   SFRSYM    DATA     BYTE      TLX
      000000D0H   SFRSYM    DATA     BYTE      PSW
      00000047H   SYMBOL    DATA     CHAR      EC11_A_Last
      00000048H   SYMBOL    DATA     CHAR      EC11_B_Last
      00000049H   SYMBOL    DATA     CHAR      FLAG_EC11_KEY_LongClick
      0000004AH   SYMBOL    DATA     CHAR      FLAG_EC11_KEY_ShotClick
      0000004BH   SYMBOL    DATA     INT       EC11_KEY_COUNT
      0000004FH   SYMBOL    DATA     BYTE      EC11_NUM_SW
      00000050H   SYMBOL    DATA     INT       EC11_KEY_DoubleClick_Count
      00000052H   SYMBOL    DATA     CHAR      FLAG_EC11_KEY_DoubleClick
      00000053H   SYMBOL    DATA     CHAR      EC11_Type

      0100172EH   BLOCK     CODE     ---       LVL=0
      0100172EH   LINE      CODE     ---       #78
      01001730H   LINE      CODE     ---       #81
      01001738H   LINE      CODE     ---       #83
      0100173BH   LINE      CODE     ---       #85
      ---         BLOCKEND  ---      ---       LVL=0

      0100184DH   BLOCK     CODE     ---       LVL=0
      0100184DH   LINE      CODE     ---       #87
      0100184DH   LINE      CODE     ---       #93
      ---         BLOCKEND  ---      ---       LVL=0

      01001849H   BLOCK     CODE     ---       LVL=0
      01001849H   LINE      CODE     ---       #95
      01001849H   LINE      CODE     ---       #104
      0100184CH   LINE      CODE     ---       #106
      ---         BLOCKEND  ---      ---       LVL=0

      0100184EH   BLOCK     CODE     ---       LVL=0
      0100184EH   LINE      CODE     ---       #108
      0100184EH   LINE      CODE     ---       #114
      ---         BLOCKEND  ---      ---       LVL=0

      0100184FH   BLOCK     CODE     ---       LVL=0
      0100184FH   LINE      CODE     ---       #116
      0100184FH   LINE      CODE     ---       #122
      ---         BLOCKEND  ---      ---       LVL=0

      01000CCCH   BLOCK     CODE     ---       LVL=0
      01000CE9H   BLOCK     CODE     NEAR LAB  LVL=1
      00000045H   SYMBOL    DATA     WORD      timer2
LX51 LINKER/LOCATER V4.66.66.0                                                        09/07/2020  22:21:36  PAGE 29


      ---         BLOCKEND  ---      ---       LVL=1
      01000CCCH   LINE      CODE     ---       #124
      01000CE9H   LINE      CODE     ---       #129
      01000CECH   LINE      CODE     ---       #131
      01000CEEH   LINE      CODE     ---       #133
      01000CF6H   LINE      CODE     ---       #136
      01000CF9H   LINE      CODE     ---       #137
      01000CF9H   LINE      CODE     ---       #138
      01000CFBH   LINE      CODE     ---       #140
      01000CFEH   LINE      CODE     ---       #141
      01000D00H   LINE      CODE     ---       #142
      01000D00H   LINE      CODE     ---       #144
      01000D0FH   LINE      CODE     ---       #145
      01000D0FH   LINE      CODE     ---       #146
      01000D11H   LINE      CODE     ---       #148
      01000D11H   LINE      CODE     ---       #150
      01000D20H   LINE      CODE     ---       #151
      01000D20H   LINE      CODE     ---       #152
      01000D22H   LINE      CODE     ---       #153
      01000D25H   LINE      CODE     ---       #154
      01000D25H   LINE      CODE     ---       #156
      01000D34H   LINE      CODE     ---       #157
      01000D34H   LINE      CODE     ---       #158
      01000D36H   LINE      CODE     ---       #160
      01000D36H   LINE      CODE     ---       #162
      01000D45H   LINE      CODE     ---       #163
      01000D45H   LINE      CODE     ---       #164
      01000D47H   LINE      CODE     ---       #166
      01000D47H   LINE      CODE     ---       #167
      01000D56H   LINE      CODE     ---       #168
      01000D56H   LINE      CODE     ---       #169
      01000D58H   LINE      CODE     ---       #171
      01000D58H   LINE      CODE     ---       #172
      01000D67H   LINE      CODE     ---       #173
      01000D67H   LINE      CODE     ---       #174
      01000D69H   LINE      CODE     ---       #175
      01000D71H   LINE      CODE     ---       #177
      01000D71H   LINE      CODE     ---       #179
      01000D80H   LINE      CODE     ---       #180
      01000D80H   LINE      CODE     ---       #181
      01000D82H   LINE      CODE     ---       #183
      01000D84H   LINE      CODE     ---       #184
      01000D86H   LINE      CODE     ---       #185
      01000D86H   LINE      CODE     ---       #189
      ---         BLOCKEND  ---      ---       LVL=0

      01001850H   BLOCK     CODE     ---       LVL=0
      01001850H   LINE      CODE     ---       #191
      01001850H   LINE      CODE     ---       #197
      ---         BLOCKEND  ---      ---       LVL=0

      01001851H   BLOCK     CODE     ---       LVL=0
      01001851H   LINE      CODE     ---       #199
      01001851H   LINE      CODE     ---       #205
      ---         BLOCKEND  ---      ---       LVL=0

      01001852H   BLOCK     CODE     ---       LVL=0
      01001852H   LINE      CODE     ---       #207
      01001852H   LINE      CODE     ---       #213
      ---         BLOCKEND  ---      ---       LVL=0

      01001853H   BLOCK     CODE     ---       LVL=0
      01001853H   LINE      CODE     ---       #215
      01001853H   LINE      CODE     ---       #221
      ---         BLOCKEND  ---      ---       LVL=0
LX51 LINKER/LOCATER V4.66.66.0                                                        09/07/2020  22:21:36  PAGE 30



      01001844H   BLOCK     CODE     ---       LVL=0
      01001844H   LINE      CODE     ---       #223
      01001844H   LINE      CODE     ---       #228
      01001846H   LINE      CODE     ---       #230
      01001848H   LINE      CODE     ---       #234
      ---         BLOCKEND  ---      ---       LVL=0

      01001854H   BLOCK     CODE     ---       LVL=0
      01001854H   LINE      CODE     ---       #236
      01001854H   LINE      CODE     ---       #242
      ---         BLOCKEND  ---      ---       LVL=0

      01001855H   BLOCK     CODE     ---       LVL=0
      01001855H   LINE      CODE     ---       #244
      01001855H   LINE      CODE     ---       #250
      ---         BLOCKEND  ---      ---       LVL=0

      01001856H   BLOCK     CODE     ---       LVL=0
      01001856H   LINE      CODE     ---       #252
      01001856H   LINE      CODE     ---       #258
      ---         BLOCKEND  ---      ---       LVL=0

      01001857H   BLOCK     CODE     ---       LVL=0
      01001857H   LINE      CODE     ---       #260
      01001857H   LINE      CODE     ---       #266
      ---         BLOCKEND  ---      ---       LVL=0

      01001858H   BLOCK     CODE     ---       LVL=0
      01001858H   LINE      CODE     ---       #268
      01001858H   LINE      CODE     ---       #274
      ---         BLOCKEND  ---      ---       LVL=0

      ---         MODULE    ---      ---       EC06_KEY
      00000018H   PUBLIC    DATA     DWORD     Temper
      00000025H.1 PUBLIC    BIT      BIT       spin_long_left
      00000025H.0 PUBLIC    BIT      BIT       spin_long_right
      00000024H.7 PUBLIC    BIT      BIT       spin_short
      00000024H.6 PUBLIC    BIT      BIT       spin_long
      00000024H.5 PUBLIC    BIT      BIT       Key_left_short
      00000024H.4 PUBLIC    BIT      BIT       Key_left_long
      00000024H.3 PUBLIC    BIT      BIT       spin_left
      00000024H.2 PUBLIC    BIT      BIT       Key_right_short
      00000024H.1 PUBLIC    BIT      BIT       Key_right_long
      00000024H.0 PUBLIC    BIT      BIT       spin_right
      00000023H.7 PUBLIC    BIT      BIT       spin_int1_flag
      010015F0H   PUBLIC    CODE     ---       spin_scan
      01000FC0H   PUBLIC    CODE     ---       key_scan
      000000C8H.2 SFRSYM    DATA     BIT       TRX
      000000FFH   SFRSYM    DATA     BYTE      OPREG
      00000080H   SFRSYM    DATA     BYTE      P0
      00000090H   SFRSYM    DATA     BYTE      P1
      000000A0H   SFRSYM    DATA     BYTE      P2
      000000A8H.4 SFRSYM    DATA     BIT       EUART
      0000008EH   SFRSYM    DATA     BYTE      TMCON
      000000B0H   SFRSYM    DATA     BYTE      P3
      000000D0H.6 SFRSYM    DATA     BIT       AC
      000000C0H   SFRSYM    DATA     BYTE      P4
      0000008FH   SFRSYM    DATA     BYTE      OTCON
      000000D8H   SFRSYM    DATA     BYTE      P5
      000000A8H.7 SFRSYM    DATA     BIT       EA
      000000C8H.5 SFRSYM    DATA     BIT       RCLKX
      000000C8H.4 SFRSYM    DATA     BIT       TCLKX
      000000C8H.3 SFRSYM    DATA     BIT       EXENX
      000000A8H.6 SFRSYM    DATA     BIT       EADC
LX51 LINKER/LOCATER V4.66.66.0                                                        09/07/2020  22:21:36  PAGE 31


      000000C9H   SFRSYM    DATA     BYTE      TXMOD
      000000C8H   SFRSYM    DATA     BYTE      TXCON
      000000A8H   SFRSYM    DATA     BYTE      IE
      00000085H   SFRSYM    DATA     BYTE      DPH1
      000000E9H   SFRSYM    DATA     BYTE      EXA0
      000000EAH   SFRSYM    DATA     BYTE      EXA1
      000000FEH   SFRSYM    DATA     BYTE      OPINX
      000000EBH   SFRSYM    DATA     BYTE      EXA2
      000000ECH   SFRSYM    DATA     BYTE      EXA3
      00000084H   SFRSYM    DATA     BYTE      DPL1
      000000C8H   SFRSYM    DATA     BIT       CP
      000000EFH   SFRSYM    DATA     BYTE      OPERCON
      0000009BH   SFRSYM    DATA     BYTE      P0PH
      000000B8H   SFRSYM    DATA     BYTE      IP
      00000092H   SFRSYM    DATA     BYTE      P1PH
      00000098H   SFRSYM    DATA     BIT       RI
      000000A2H   SFRSYM    DATA     BYTE      P2PH
      000000D0H.7 SFRSYM    DATA     BIT       CY
      000000B2H   SFRSYM    DATA     BYTE      P3PH
      00000098H.1 SFRSYM    DATA     BIT       TI
      000000CEH   SFRSYM    DATA     BYTE      TXINX
      000000C2H   SFRSYM    DATA     BYTE      P4PH
      000000B8H.1 SFRSYM    DATA     BIT       IPT0
      000000DAH   SFRSYM    DATA     BYTE      P5PH
      000000B8H.3 SFRSYM    DATA     BIT       IPT1
      000000B8H.5 SFRSYM    DATA     BIT       IPT2
      00000081H   SFRSYM    DATA     BYTE      SP
      000000D0H.2 SFRSYM    DATA     BIT       OV
      000000F4H   SFRSYM    DATA     BYTE      IAPADE
      0000009CH   SFRSYM    DATA     BYTE      P0VO
      00000094H   SFRSYM    DATA     BYTE      P1VO
      000000EEH   SFRSYM    DATA     BYTE      EXBH
      000000A3H   SFRSYM    DATA     BYTE      P2VO
      000000F3H   SFRSYM    DATA     BYTE      IAPADH
      000000B3H   SFRSYM    DATA     BYTE      P3VO
      000000ADH   SFRSYM    DATA     BYTE      ADCCON
      000000C8H.1 SFRSYM    DATA     BIT       TX
      000000EDH   SFRSYM    DATA     BYTE      EXBL
      000000F2H   SFRSYM    DATA     BYTE      IAPADL
      00000080H   SFRSYM    DATA     BIT       P00
      00000090H   SFRSYM    DATA     BIT       P10
      00000080H.1 SFRSYM    DATA     BIT       P01
      00000099H   SFRSYM    DATA     BYTE      SBUF
      00000087H   SFRSYM    DATA     BYTE      PCON
      000000A0H   SFRSYM    DATA     BIT       P20
      00000090H.1 SFRSYM    DATA     BIT       P11
      00000080H.2 SFRSYM    DATA     BIT       P02
      000000B6H   SFRSYM    DATA     BYTE      CMPCFG
      000000B0H   SFRSYM    DATA     BIT       P30
      000000A0H.1 SFRSYM    DATA     BIT       P21
      00000090H.2 SFRSYM    DATA     BIT       P12
      00000080H.3 SFRSYM    DATA     BIT       P03
      000000C0H   SFRSYM    DATA     BIT       P40
      000000B0H.1 SFRSYM    DATA     BIT       P31
      000000A0H.2 SFRSYM    DATA     BIT       P22
      00000090H.3 SFRSYM    DATA     BIT       P13
      00000080H.4 SFRSYM    DATA     BIT       P04
      00000098H   SFRSYM    DATA     BYTE      SCON
      000000D8H   SFRSYM    DATA     BIT       P50
      000000C0H.1 SFRSYM    DATA     BIT       P41
      000000B0H.2 SFRSYM    DATA     BIT       P32
      000000A0H.3 SFRSYM    DATA     BIT       P23
      00000090H.4 SFRSYM    DATA     BIT       P14
      00000080H.5 SFRSYM    DATA     BIT       P05
      000000F5H   SFRSYM    DATA     BYTE      IAPDAT
LX51 LINKER/LOCATER V4.66.66.0                                                        09/07/2020  22:21:36  PAGE 32


      00000088H   SFRSYM    DATA     BYTE      TCON
      00000089H   SFRSYM    DATA     BYTE      TMOD
      000000D8H.1 SFRSYM    DATA     BIT       P51
      000000C0H.2 SFRSYM    DATA     BIT       P42
      000000B0H.3 SFRSYM    DATA     BIT       P33
      000000A0H.4 SFRSYM    DATA     BIT       P24
      00000090H.5 SFRSYM    DATA     BIT       P15
      00000080H.6 SFRSYM    DATA     BIT       P06
      000000B8H   SFRSYM    DATA     BIT       IPINT0
      000000D8H.2 SFRSYM    DATA     BIT       P52
      000000C0H.3 SFRSYM    DATA     BIT       P43
      000000B0H.4 SFRSYM    DATA     BIT       P34
      000000A0H.5 SFRSYM    DATA     BIT       P25
      00000090H.6 SFRSYM    DATA     BIT       P16
      00000080H.7 SFRSYM    DATA     BIT       P07
      000000B8H.2 SFRSYM    DATA     BIT       IPINT1
      000000D8H.3 SFRSYM    DATA     BIT       P53
      000000C0H.4 SFRSYM    DATA     BIT       P44
      000000B0H.5 SFRSYM    DATA     BIT       P35
      000000A0H.6 SFRSYM    DATA     BIT       P26
      00000090H.7 SFRSYM    DATA     BIT       P17
      000000FDH   SFRSYM    DATA     BYTE      CRCREG
      000000D8H.4 SFRSYM    DATA     BIT       P54
      000000C0H.5 SFRSYM    DATA     BIT       P45
      000000B0H.6 SFRSYM    DATA     BIT       P36
      000000A0H.7 SFRSYM    DATA     BIT       P27
      000000D8H.5 SFRSYM    DATA     BIT       P55
      000000C0H.6 SFRSYM    DATA     BIT       P46
      000000B0H.7 SFRSYM    DATA     BIT       P37
      000000C0H.7 SFRSYM    DATA     BIT       P47
      000000C8H.6 SFRSYM    DATA     BIT       EXFX
      00000093H   SFRSYM    DATA     BYTE      DDRCON
      000000F6H   SFRSYM    DATA     BYTE      IAPCTL
      000000A9H   SFRSYM    DATA     BYTE      IE1
      000000AAH   SFRSYM    DATA     BYTE      IE2
      000000F0H   SFRSYM    DATA     BYTE      B
      000000B7H   SFRSYM    DATA     BYTE      CMPCON
      000000F1H   SFRSYM    DATA     BYTE      IAPKEY
      000000FBH   SFRSYM    DATA     BYTE      BTMCON
      000000D4H   SFRSYM    DATA     BYTE      PWMCFG
      000000E0H   SFRSYM    DATA     BYTE      ACC
      000000CBH   SFRSYM    DATA     BYTE      RCAPXH
      000000A8H.1 SFRSYM    DATA     BIT       ET0
      000000FCH   SFRSYM    DATA     BYTE      CRCINX
      00000088H.5 SFRSYM    DATA     BIT       TF0
      000000A8H.3 SFRSYM    DATA     BIT       ET1
      000000ABH   SFRSYM    DATA     BYTE      ADCCFG0
      000000B9H   SFRSYM    DATA     BYTE      IP1
      00000088H.7 SFRSYM    DATA     BIT       TF1
      000000A8H.5 SFRSYM    DATA     BIT       ET2
      000000ACH   SFRSYM    DATA     BYTE      ADCCFG1
      000000BAH   SFRSYM    DATA     BYTE      IP2
      00000098H.2 SFRSYM    DATA     BIT       RB8
      000000B5H   SFRSYM    DATA     BYTE      ADCCFG2
      000000CAH   SFRSYM    DATA     BYTE      RCAPXL
      0000008CH   SFRSYM    DATA     BYTE      TH0
      0000008DH   SFRSYM    DATA     BYTE      TH1
      00000098H.3 SFRSYM    DATA     BIT       TB8
      000000D0H   SFRSYM    DATA     BIT       P
      00000098H.7 SFRSYM    DATA     BIT       SM0
      0000008AH   SFRSYM    DATA     BYTE      TL0
      00000098H.6 SFRSYM    DATA     BIT       SM1
      000000CFH   SFRSYM    DATA     BYTE      WDTCON
      0000008BH   SFRSYM    DATA     BYTE      TL1
      00000098H.5 SFRSYM    DATA     BIT       SM2
LX51 LINKER/LOCATER V4.66.66.0                                                        09/07/2020  22:21:36  PAGE 33


      000000D5H   SFRSYM    DATA     BYTE      PWMDFR
      000000D0H.3 SFRSYM    DATA     BIT       RS0
      00000088H.4 SFRSYM    DATA     BIT       TR0
      000000D0H.4 SFRSYM    DATA     BIT       RS1
      000000D3H   SFRSYM    DATA     BYTE      PWMCON
      000000D7H   SFRSYM    DATA     BYTE      PWMMOD
      00000088H.6 SFRSYM    DATA     BIT       TR1
      000000B8H.4 SFRSYM    DATA     BIT       IPUART
      000000D6H   SFRSYM    DATA     BYTE      PWMFLT
      00000083H   SFRSYM    DATA     BYTE      DPH
      00000082H   SFRSYM    DATA     BYTE      DPL
      000000A8H   SFRSYM    DATA     BIT       EINT0
      0000009AH   SFRSYM    DATA     BYTE      P0CON
      000000A8H.2 SFRSYM    DATA     BIT       EINT1
      000000B8H.6 SFRSYM    DATA     BIT       IPADC
      000000B4H   SFRSYM    DATA     BYTE      INT0F
      00000091H   SFRSYM    DATA     BYTE      P1CON
      000000BCH   SFRSYM    DATA     BYTE      INT1F
      000000A1H   SFRSYM    DATA     BYTE      P2CON
      000000BEH   SFRSYM    DATA     BYTE      INT2F
      000000B1H   SFRSYM    DATA     BYTE      P3CON
      00000098H.4 SFRSYM    DATA     BIT       REN
      000000C1H   SFRSYM    DATA     BYTE      P4CON
      000000D9H   SFRSYM    DATA     BYTE      P5CON
      000000AFH   SFRSYM    DATA     BYTE      ADCVH
      00000086H   SFRSYM    DATA     BYTE      DPS
      00000095H   SFRSYM    DATA     BYTE      US0CON0
      000000F7H   SFRSYM    DATA     BYTE      EXADH
      000000A4H   SFRSYM    DATA     BYTE      US1CON0
      0000009DH   SFRSYM    DATA     BYTE      US0CON1
      000000AEH   SFRSYM    DATA     BYTE      ADCVL
      000000C4H   SFRSYM    DATA     BYTE      US2CON0
      000000A5H   SFRSYM    DATA     BYTE      US1CON1
      0000009EH   SFRSYM    DATA     BYTE      US0CON2
      000000C5H   SFRSYM    DATA     BYTE      US2CON1
      000000A6H   SFRSYM    DATA     BYTE      US1CON2
      0000009FH   SFRSYM    DATA     BYTE      US0CON3
      000000C6H   SFRSYM    DATA     BYTE      US2CON2
      000000A7H   SFRSYM    DATA     BYTE      US1CON3
      000000BBH   SFRSYM    DATA     BYTE      INT0R
      000000C7H   SFRSYM    DATA     BYTE      US2CON3
      000000BDH   SFRSYM    DATA     BYTE      INT1R
      000000BFH   SFRSYM    DATA     BYTE      INT2R
      000000C8H.7 SFRSYM    DATA     BIT       TFX
      00000096H   SFRSYM    DATA     BYTE      IOHCON0
      00000097H   SFRSYM    DATA     BYTE      IOHCON1
      000000CDH   SFRSYM    DATA     BYTE      THX
      000000D0H.5 SFRSYM    DATA     BIT       F0
      000000D0H.1 SFRSYM    DATA     BIT       F1
      000000CCH   SFRSYM    DATA     BYTE      TLX
      000000D0H   SFRSYM    DATA     BYTE      PSW
      0000000DH   SYMBOL    DATA     CHAR      EC11_A_Last
      0000000EH   SYMBOL    DATA     CHAR      EC11_B_Last
      0000000FH   SYMBOL    DATA     CHAR      FLAG_EC11_KEY_LongClick
      00000010H   SYMBOL    DATA     CHAR      FLAG_EC11_KEY_ShotClick
      00000011H   SYMBOL    DATA     INT       EC11_KEY_COUNT
      00000013H   SYMBOL    DATA     BYTE      EC11_NUM_SW
      00000014H   SYMBOL    DATA     INT       EC11_KEY_DoubleClick_Count
      00000016H   SYMBOL    DATA     CHAR      FLAG_EC11_KEY_DoubleClick
      00000017H   SYMBOL    DATA     CHAR      EC11_Type

      01000FC0H   BLOCK     CODE     ---       LVL=0
      01000FC0H   BLOCK     CODE     NEAR LAB  LVL=1
      00000008H   SYMBOL    DATA     BYTE      Key_left_count
      00000009H   SYMBOL    DATA     BYTE      Key_right_count
LX51 LINKER/LOCATER V4.66.66.0                                                        09/07/2020  22:21:36  PAGE 34


      0000000AH   SYMBOL    DATA     BYTE      EC11_Key_count
      ---         BLOCKEND  ---      ---       LVL=1
      01000FC0H   LINE      CODE     ---       #88
      01000FC0H   LINE      CODE     ---       #89
      01000FC0H   LINE      CODE     ---       #95
      01000FC3H   LINE      CODE     ---       #96
      01000FC3H   LINE      CODE     ---       #97
      01000FCAH   LINE      CODE     ---       #98
      01000FCCH   LINE      CODE     ---       #99
      01000FD3H   LINE      CODE     ---       #100
      01000FD3H   LINE      CODE     ---       #101
      01000FD5H   LINE      CODE     ---       #102
      01000FD5H   LINE      CODE     ---       #103
      01000FD5H   LINE      CODE     ---       #104
      01000FD8H   LINE      CODE     ---       #105
      01000FD8H   LINE      CODE     ---       #106
      01000FE5H   LINE      CODE     ---       #107
      01000FE5H   LINE      CODE     ---       #108
      01000FE7H   LINE      CODE     ---       #109
      01000FE7H   LINE      CODE     ---       #110
      01000FEAH   LINE      CODE     ---       #111
      01000FECH   LINE      CODE     ---       #112
      01000FECH   LINE      CODE     ---       #115
      01000FEFH   LINE      CODE     ---       #116
      01000FEFH   LINE      CODE     ---       #117
      01000FF6H   LINE      CODE     ---       #118
      01000FF8H   LINE      CODE     ---       #119
      01000FFFH   LINE      CODE     ---       #120
      01000FFFH   LINE      CODE     ---       #121
      01001001H   LINE      CODE     ---       #122
      01001001H   LINE      CODE     ---       #123
      01001001H   LINE      CODE     ---       #124
      01001004H   LINE      CODE     ---       #125
      01001004H   LINE      CODE     ---       #126
      01001011H   LINE      CODE     ---       #127
      01001011H   LINE      CODE     ---       #128
      01001013H   LINE      CODE     ---       #129
      01001013H   LINE      CODE     ---       #130
      01001016H   LINE      CODE     ---       #131
      01001018H   LINE      CODE     ---       #132
      01001018H   LINE      CODE     ---       #135
      0100101BH   LINE      CODE     ---       #136
      0100101BH   LINE      CODE     ---       #137
      01001022H   LINE      CODE     ---       #138
      01001024H   LINE      CODE     ---       #139
      0100102BH   LINE      CODE     ---       #140
      0100102BH   LINE      CODE     ---       #141
      0100102DH   LINE      CODE     ---       #142
      0100102DH   LINE      CODE     ---       #143
      0100102DH   LINE      CODE     ---       #144
      01001030H   LINE      CODE     ---       #145
      01001030H   LINE      CODE     ---       #146
      0100103DH   LINE      CODE     ---       #147
      0100103DH   LINE      CODE     ---       #148
      0100103FH   LINE      CODE     ---       #149
      0100103FH   LINE      CODE     ---       #150
      01001042H   LINE      CODE     ---       #151
      01001044H   LINE      CODE     ---       #152
      01001044H   LINE      CODE     ---       #154
      ---         BLOCKEND  ---      ---       LVL=0

      010015F0H   BLOCK     CODE     ---       LVL=0
      010015F0H   LINE      CODE     ---       #163
      010015F0H   LINE      CODE     ---       #164
      010015F0H   LINE      CODE     ---       #165
LX51 LINKER/LOCATER V4.66.66.0                                                        09/07/2020  22:21:36  PAGE 35


      010015F3H   LINE      CODE     ---       #166
      010015F3H   LINE      CODE     ---       #168
      010015F6H   LINE      CODE     ---       #169
      010015F6H   LINE      CODE     ---       #171
      010015F9H   LINE      CODE     ---       #172
      010015FBH   LINE      CODE     ---       #174
      010015FEH   LINE      CODE     ---       #175
      01001600H   LINE      CODE     ---       #176
      01001602H   LINE      CODE     ---       #178
      01001602H   LINE      CODE     ---       #180
      01001605H   LINE      CODE     ---       #181
      01001607H   LINE      CODE     ---       #183
      0100160AH   LINE      CODE     ---       #184
      0100160CH   LINE      CODE     ---       #185
      0100160CH   LINE      CODE     ---       #187
      0100160EH   LINE      CODE     ---       #188
      0100160EH   LINE      CODE     ---       #189
      ---         BLOCKEND  ---      ---       LVL=0
      00000007H   SYMBOL    DATA     CHAR      ScanResult
      00000007H   SYMBOL    DATA     CHAR      EC11_Value
      00000003H   SYMBOL    DATA     CHAR      AnalyzeResult
      0000000BH   SYMBOL    DATA     WORD      TMP_Value

      ---         MODULE    ---      ---       INTERFACE
      010018E2H   PUBLIC    CONST    ---       LCD_week_SEG
      010018D9H   PUBLIC    CONST    ---       LCD_bits_SEG
      01001893H   PUBLIC    CONST    ---       LCD_number_COM
      0100185BH   PUBLIC    CONST    ---       LCD_number_SEG
      0100117DH   PUBLIC    CODE     ---       _LCD_sTemperature
      01001546H   PUBLIC    CODE     ---       LCD_Temper_error
      00000027H.0 PUBLIC    BIT      BIT       ?_LCD_time?BIT
      010011E1H   PUBLIC    CODE     ---       _LCD_time
      00000027H.3 PUBLIC    BIT      BIT       ?_LCD_number?BIT
      0100105FH   PUBLIC    CODE     ---       _LCD_number
      010010B2H   PUBLIC    CODE     ---       _LCD_wind
      01001280H   PUBLIC    CODE     ---       _LCD_state
      0100123AH   PUBLIC    CODE     ---       _LCD_mode
      00000027H.0 PUBLIC    BIT      BIT       ?_LCD_week?BIT
      0100173EH   PUBLIC    CODE     ---       _LCD_week
      010017C2H   PUBLIC    CODE     ---       _LCD_group
      010006F5H   PUBLIC    CODE     ---       _LCD_clean
      010013B3H   PUBLIC    CODE     ---       LCD_cleanALL
      000000C8H.2 SFRSYM    DATA     BIT       TRX
      000000FFH   SFRSYM    DATA     BYTE      OPREG
      00000080H   SFRSYM    DATA     BYTE      P0
      00000090H   SFRSYM    DATA     BYTE      P1
      000000A0H   SFRSYM    DATA     BYTE      P2
      000000A8H.4 SFRSYM    DATA     BIT       EUART
      0000008EH   SFRSYM    DATA     BYTE      TMCON
      000000B0H   SFRSYM    DATA     BYTE      P3
      000000D0H.6 SFRSYM    DATA     BIT       AC
      000000C0H   SFRSYM    DATA     BYTE      P4
      0000008FH   SFRSYM    DATA     BYTE      OTCON
      000000D8H   SFRSYM    DATA     BYTE      P5
      000000A8H.7 SFRSYM    DATA     BIT       EA
      000000C8H.5 SFRSYM    DATA     BIT       RCLKX
      000000C8H.4 SFRSYM    DATA     BIT       TCLKX
      000000C8H.3 SFRSYM    DATA     BIT       EXENX
      000000A8H.6 SFRSYM    DATA     BIT       EADC
      000000C9H   SFRSYM    DATA     BYTE      TXMOD
      000000C8H   SFRSYM    DATA     BYTE      TXCON
      000000A8H   SFRSYM    DATA     BYTE      IE
      00000085H   SFRSYM    DATA     BYTE      DPH1
      000000E9H   SFRSYM    DATA     BYTE      EXA0
      000000EAH   SFRSYM    DATA     BYTE      EXA1
LX51 LINKER/LOCATER V4.66.66.0                                                        09/07/2020  22:21:36  PAGE 36


      000000FEH   SFRSYM    DATA     BYTE      OPINX
      000000EBH   SFRSYM    DATA     BYTE      EXA2
      000000ECH   SFRSYM    DATA     BYTE      EXA3
      00000084H   SFRSYM    DATA     BYTE      DPL1
      000000C8H   SFRSYM    DATA     BIT       CP
      000000EFH   SFRSYM    DATA     BYTE      OPERCON
      0000009BH   SFRSYM    DATA     BYTE      P0PH
      000000B8H   SFRSYM    DATA     BYTE      IP
      00000092H   SFRSYM    DATA     BYTE      P1PH
      00000098H   SFRSYM    DATA     BIT       RI
      000000A2H   SFRSYM    DATA     BYTE      P2PH
      000000D0H.7 SFRSYM    DATA     BIT       CY
      000000B2H   SFRSYM    DATA     BYTE      P3PH
      00000098H.1 SFRSYM    DATA     BIT       TI
      000000CEH   SFRSYM    DATA     BYTE      TXINX
      000000C2H   SFRSYM    DATA     BYTE      P4PH
      000000B8H.1 SFRSYM    DATA     BIT       IPT0
      000000DAH   SFRSYM    DATA     BYTE      P5PH
      000000B8H.3 SFRSYM    DATA     BIT       IPT1
      000000B8H.5 SFRSYM    DATA     BIT       IPT2
      00000081H   SFRSYM    DATA     BYTE      SP
      000000D0H.2 SFRSYM    DATA     BIT       OV
      000000F4H   SFRSYM    DATA     BYTE      IAPADE
      0000009CH   SFRSYM    DATA     BYTE      P0VO
      00000094H   SFRSYM    DATA     BYTE      P1VO
      000000EEH   SFRSYM    DATA     BYTE      EXBH
      000000A3H   SFRSYM    DATA     BYTE      P2VO
      000000F3H   SFRSYM    DATA     BYTE      IAPADH
      000000B3H   SFRSYM    DATA     BYTE      P3VO
      000000ADH   SFRSYM    DATA     BYTE      ADCCON
      000000C8H.1 SFRSYM    DATA     BIT       TX
      000000EDH   SFRSYM    DATA     BYTE      EXBL
      000000F2H   SFRSYM    DATA     BYTE      IAPADL
      00000080H   SFRSYM    DATA     BIT       P00
      00000090H   SFRSYM    DATA     BIT       P10
      00000080H.1 SFRSYM    DATA     BIT       P01
      00000099H   SFRSYM    DATA     BYTE      SBUF
      00000087H   SFRSYM    DATA     BYTE      PCON
      000000A0H   SFRSYM    DATA     BIT       P20
      00000090H.1 SFRSYM    DATA     BIT       P11
      00000080H.2 SFRSYM    DATA     BIT       P02
      000000B6H   SFRSYM    DATA     BYTE      CMPCFG
      000000B0H   SFRSYM    DATA     BIT       P30
      000000A0H.1 SFRSYM    DATA     BIT       P21
      00000090H.2 SFRSYM    DATA     BIT       P12
      00000080H.3 SFRSYM    DATA     BIT       P03
      000000C0H   SFRSYM    DATA     BIT       P40
      000000B0H.1 SFRSYM    DATA     BIT       P31
      000000A0H.2 SFRSYM    DATA     BIT       P22
      00000090H.3 SFRSYM    DATA     BIT       P13
      00000080H.4 SFRSYM    DATA     BIT       P04
      00000098H   SFRSYM    DATA     BYTE      SCON
      000000D8H   SFRSYM    DATA     BIT       P50
      000000C0H.1 SFRSYM    DATA     BIT       P41
      000000B0H.2 SFRSYM    DATA     BIT       P32
      000000A0H.3 SFRSYM    DATA     BIT       P23
      00000090H.4 SFRSYM    DATA     BIT       P14
      00000080H.5 SFRSYM    DATA     BIT       P05
      000000F5H   SFRSYM    DATA     BYTE      IAPDAT
      00000088H   SFRSYM    DATA     BYTE      TCON
      00000089H   SFRSYM    DATA     BYTE      TMOD
      000000D8H.1 SFRSYM    DATA     BIT       P51
      000000C0H.2 SFRSYM    DATA     BIT       P42
      000000B0H.3 SFRSYM    DATA     BIT       P33
      000000A0H.4 SFRSYM    DATA     BIT       P24
LX51 LINKER/LOCATER V4.66.66.0                                                        09/07/2020  22:21:36  PAGE 37


      00000090H.5 SFRSYM    DATA     BIT       P15
      00000080H.6 SFRSYM    DATA     BIT       P06
      000000B8H   SFRSYM    DATA     BIT       IPINT0
      000000D8H.2 SFRSYM    DATA     BIT       P52
      000000C0H.3 SFRSYM    DATA     BIT       P43
      000000B0H.4 SFRSYM    DATA     BIT       P34
      000000A0H.5 SFRSYM    DATA     BIT       P25
      00000090H.6 SFRSYM    DATA     BIT       P16
      00000080H.7 SFRSYM    DATA     BIT       P07
      000000B8H.2 SFRSYM    DATA     BIT       IPINT1
      000000D8H.3 SFRSYM    DATA     BIT       P53
      000000C0H.4 SFRSYM    DATA     BIT       P44
      000000B0H.5 SFRSYM    DATA     BIT       P35
      000000A0H.6 SFRSYM    DATA     BIT       P26
      00000090H.7 SFRSYM    DATA     BIT       P17
      000000FDH   SFRSYM    DATA     BYTE      CRCREG
      000000D8H.4 SFRSYM    DATA     BIT       P54
      000000C0H.5 SFRSYM    DATA     BIT       P45
      000000B0H.6 SFRSYM    DATA     BIT       P36
      000000A0H.7 SFRSYM    DATA     BIT       P27
      000000D8H.5 SFRSYM    DATA     BIT       P55
      000000C0H.6 SFRSYM    DATA     BIT       P46
      000000B0H.7 SFRSYM    DATA     BIT       P37
      000000C0H.7 SFRSYM    DATA     BIT       P47
      000000C8H.6 SFRSYM    DATA     BIT       EXFX
      00000093H   SFRSYM    DATA     BYTE      DDRCON
      000000F6H   SFRSYM    DATA     BYTE      IAPCTL
      000000A9H   SFRSYM    DATA     BYTE      IE1
      000000AAH   SFRSYM    DATA     BYTE      IE2
      000000F0H   SFRSYM    DATA     BYTE      B
      000000B7H   SFRSYM    DATA     BYTE      CMPCON
      000000F1H   SFRSYM    DATA     BYTE      IAPKEY
      000000FBH   SFRSYM    DATA     BYTE      BTMCON
      000000D4H   SFRSYM    DATA     BYTE      PWMCFG
      000000E0H   SFRSYM    DATA     BYTE      ACC
      000000CBH   SFRSYM    DATA     BYTE      RCAPXH
      000000A8H.1 SFRSYM    DATA     BIT       ET0
      000000FCH   SFRSYM    DATA     BYTE      CRCINX
      00000088H.5 SFRSYM    DATA     BIT       TF0
      000000A8H.3 SFRSYM    DATA     BIT       ET1
      000000ABH   SFRSYM    DATA     BYTE      ADCCFG0
      000000B9H   SFRSYM    DATA     BYTE      IP1
      00000088H.7 SFRSYM    DATA     BIT       TF1
      000000A8H.5 SFRSYM    DATA     BIT       ET2
      000000ACH   SFRSYM    DATA     BYTE      ADCCFG1
      000000BAH   SFRSYM    DATA     BYTE      IP2
      00000098H.2 SFRSYM    DATA     BIT       RB8
      000000B5H   SFRSYM    DATA     BYTE      ADCCFG2
      000000CAH   SFRSYM    DATA     BYTE      RCAPXL
      0000008CH   SFRSYM    DATA     BYTE      TH0
      0000008DH   SFRSYM    DATA     BYTE      TH1
      00000098H.3 SFRSYM    DATA     BIT       TB8
      000000D0H   SFRSYM    DATA     BIT       P
      00000098H.7 SFRSYM    DATA     BIT       SM0
      0000008AH   SFRSYM    DATA     BYTE      TL0
      00000098H.6 SFRSYM    DATA     BIT       SM1
      000000CFH   SFRSYM    DATA     BYTE      WDTCON
      0000008BH   SFRSYM    DATA     BYTE      TL1
      00000098H.5 SFRSYM    DATA     BIT       SM2
      000000D5H   SFRSYM    DATA     BYTE      PWMDFR
      000000D0H.3 SFRSYM    DATA     BIT       RS0
      00000088H.4 SFRSYM    DATA     BIT       TR0
      000000D0H.4 SFRSYM    DATA     BIT       RS1
      000000D3H   SFRSYM    DATA     BYTE      PWMCON
      000000D7H   SFRSYM    DATA     BYTE      PWMMOD
LX51 LINKER/LOCATER V4.66.66.0                                                        09/07/2020  22:21:36  PAGE 38


      00000088H.6 SFRSYM    DATA     BIT       TR1
      000000B8H.4 SFRSYM    DATA     BIT       IPUART
      000000D6H   SFRSYM    DATA     BYTE      PWMFLT
      00000083H   SFRSYM    DATA     BYTE      DPH
      00000082H   SFRSYM    DATA     BYTE      DPL
      000000A8H   SFRSYM    DATA     BIT       EINT0
      0000009AH   SFRSYM    DATA     BYTE      P0CON
      000000A8H.2 SFRSYM    DATA     BIT       EINT1
      000000B8H.6 SFRSYM    DATA     BIT       IPADC
      000000B4H   SFRSYM    DATA     BYTE      INT0F
      00000091H   SFRSYM    DATA     BYTE      P1CON
      000000BCH   SFRSYM    DATA     BYTE      INT1F
      000000A1H   SFRSYM    DATA     BYTE      P2CON
      000000BEH   SFRSYM    DATA     BYTE      INT2F
      000000B1H   SFRSYM    DATA     BYTE      P3CON
      00000098H.4 SFRSYM    DATA     BIT       REN
      000000C1H   SFRSYM    DATA     BYTE      P4CON
      000000D9H   SFRSYM    DATA     BYTE      P5CON
      000000AFH   SFRSYM    DATA     BYTE      ADCVH
      00000086H   SFRSYM    DATA     BYTE      DPS
      00000095H   SFRSYM    DATA     BYTE      US0CON0
      000000F7H   SFRSYM    DATA     BYTE      EXADH
      000000A4H   SFRSYM    DATA     BYTE      US1CON0
      0000009DH   SFRSYM    DATA     BYTE      US0CON1
      000000AEH   SFRSYM    DATA     BYTE      ADCVL
      000000C4H   SFRSYM    DATA     BYTE      US2CON0
      000000A5H   SFRSYM    DATA     BYTE      US1CON1
      0000009EH   SFRSYM    DATA     BYTE      US0CON2
      000000C5H   SFRSYM    DATA     BYTE      US2CON1
      000000A6H   SFRSYM    DATA     BYTE      US1CON2
      0000009FH   SFRSYM    DATA     BYTE      US0CON3
      000000C6H   SFRSYM    DATA     BYTE      US2CON2
      000000A7H   SFRSYM    DATA     BYTE      US1CON3
      000000BBH   SFRSYM    DATA     BYTE      INT0R
      000000C7H   SFRSYM    DATA     BYTE      US2CON3
      000000BDH   SFRSYM    DATA     BYTE      INT1R
      000000BFH   SFRSYM    DATA     BYTE      INT2R
      000000C8H.7 SFRSYM    DATA     BIT       TFX
      00000096H   SFRSYM    DATA     BYTE      IOHCON0
      00000097H   SFRSYM    DATA     BYTE      IOHCON1
      000000CDH   SFRSYM    DATA     BYTE      THX
      000000D0H.5 SFRSYM    DATA     BIT       F0
      000000D0H.1 SFRSYM    DATA     BIT       F1
      000000CCH   SFRSYM    DATA     BYTE      TLX
      000000D0H   SFRSYM    DATA     BYTE      PSW

      010013B3H   BLOCK     CODE     ---       LVL=0
      010013B3H   LINE      CODE     ---       #63
      010013B3H   LINE      CODE     ---       #64
      010013B3H   LINE      CODE     ---       #65
      010013B8H   LINE      CODE     ---       #66
      010013BDH   LINE      CODE     ---       #67
      010013C2H   LINE      CODE     ---       #68
      010013C7H   LINE      CODE     ---       #69
      010013CCH   LINE      CODE     ---       #70
      010013D1H   LINE      CODE     ---       #71
      010013D6H   LINE      CODE     ---       #72
      010013DFH   LINE      CODE     ---       #73
      ---         BLOCKEND  ---      ---       LVL=0

      010006F5H   BLOCK     CODE     ---       LVL=0
      00000068H   SYMBOL    DATA     BYTE      bits
      010006F7H   BLOCK     CODE     NEAR LAB  LVL=1
      00000069H   SYMBOL    DATA     BYTE      select
      ---         BLOCKEND  ---      ---       LVL=1
LX51 LINKER/LOCATER V4.66.66.0                                                        09/07/2020  22:21:36  PAGE 39


      010006F5H   LINE      CODE     ---       #84
      010006F7H   LINE      CODE     ---       #85
      010006F7H   LINE      CODE     ---       #87
      010006FBH   LINE      CODE     ---       #88
      010006FBH   LINE      CODE     ---       #90
      01000703H   LINE      CODE     ---       #91
      0100070CH   LINE      CODE     ---       #92
      01000715H   LINE      CODE     ---       #94
      01000718H   LINE      CODE     ---       #95
      01000718H   LINE      CODE     ---       #96
      01000721H   LINE      CODE     ---       #97
      01000734H   LINE      CODE     ---       #98
      01000747H   LINE      CODE     ---       #99
      0100075AH   LINE      CODE     ---       #101
      01000764H   LINE      CODE     ---       #103
      01000764H   LINE      CODE     ---       #104
      0100076AH   LINE      CODE     ---       #105
      0100076AH   LINE      CODE     ---       #108
      0100076CH   LINE      CODE     ---       #109
      0100076CH   LINE      CODE     ---       #110
      0100077FH   LINE      CODE     ---       #111
      01000792H   LINE      CODE     ---       #112
      010007A5H   LINE      CODE     ---       #113
      010007B8H   LINE      CODE     ---       #115
      010007C6H   LINE      CODE     ---       #116
      010007D0H   LINE      CODE     ---       #118
      010007D0H   LINE      CODE     ---       #119
      010007D5H   LINE      CODE     ---       #120
      010007D5H   LINE      CODE     ---       #121
      010007DEH   LINE      CODE     ---       #122
      010007E7H   LINE      CODE     ---       #123
      010007EDH   LINE      CODE     ---       #124
      010007EFH   LINE      CODE     ---       #125
      010007F4H   LINE      CODE     ---       #126
      010007F4H   LINE      CODE     ---       #127
      010007F9H   LINE      CODE     ---       #130
      010007F9H   LINE      CODE     ---       #131
      010007FEH   LINE      CODE     ---       #132
      010007FEH   LINE      CODE     ---       #133
      01000807H   LINE      CODE     ---       #134
      01000810H   LINE      CODE     ---       #135
      01000816H   LINE      CODE     ---       #136
      01000818H   LINE      CODE     ---       #137
      0100081DH   LINE      CODE     ---       #138
      0100081DH   LINE      CODE     ---       #139
      01000826H   LINE      CODE     ---       #140
      0100082FH   LINE      CODE     ---       #141
      01000838H   LINE      CODE     ---       #142
      01000838H   LINE      CODE     ---       #143
      0100083DH   LINE      CODE     ---       #144
      0100083DH   LINE      CODE     ---       #145
      01000840H   LINE      CODE     ---       #146
      01000840H   LINE      CODE     ---       #147
      0100084EH   LINE      CODE     ---       #148
      01000857H   LINE      CODE     ---       #149
      01000857H   LINE      CODE     ---       #151
      ---         BLOCKEND  ---      ---       LVL=0

      010017C2H   BLOCK     CODE     ---       LVL=0
      00000007H   SYMBOL    DATA     BYTE      bits
      010017C2H   LINE      CODE     ---       #160
      010017C2H   LINE      CODE     ---       #161
      010017C2H   LINE      CODE     ---       #163
      ---         BLOCKEND  ---      ---       LVL=0

LX51 LINKER/LOCATER V4.66.66.0                                                        09/07/2020  22:21:36  PAGE 40


      0100173EH   BLOCK     CODE     ---       LVL=0
      00000007H   SYMBOL    DATA     BYTE      week
      00000027H.0 SYMBOL    BIT      BIT       blink
      0100173EH   LINE      CODE     ---       #174
      0100173EH   LINE      CODE     ---       #175
      0100173EH   LINE      CODE     ---       #177
      ---         BLOCKEND  ---      ---       LVL=0

      0100123AH   BLOCK     CODE     ---       LVL=0
      00000007H   SYMBOL    DATA     BYTE      mode
      0100123AH   BLOCK     CODE     NEAR LAB  LVL=1
      00000025H.2 SYMBOL    BIT      BIT       DDIC_Control1
      00000025H.3 SYMBOL    BIT      BIT       DDIC_Control2
      00000025H.4 SYMBOL    BIT      BIT       DDIC_Control3
      ---         BLOCKEND  ---      ---       LVL=1
      0100123AH   LINE      CODE     ---       #188
      0100123AH   LINE      CODE     ---       #189
      0100123AH   LINE      CODE     ---       #194
      01001246H   LINE      CODE     ---       #195
      01001246H   LINE      CODE     ---       #196
      01001246H   LINE      CODE     ---       #197
      01001248H   LINE      CODE     ---       #198
      0100124AH   LINE      CODE     ---       #199
      0100124CH   LINE      CODE     ---       #200
      0100124EH   LINE      CODE     ---       #201
      0100124EH   LINE      CODE     ---       #202
      01001250H   LINE      CODE     ---       #203
      01001252H   LINE      CODE     ---       #204
      01001254H   LINE      CODE     ---       #205
      01001256H   LINE      CODE     ---       #206
      01001256H   LINE      CODE     ---       #207
      01001258H   LINE      CODE     ---       #208
      0100125AH   LINE      CODE     ---       #209
      0100125CH   LINE      CODE     ---       #210
      0100125CH   LINE      CODE     ---       #211
      0100125CH   LINE      CODE     ---       #212
      0100125CH   LINE      CODE     ---       #213
      0100125CH   LINE      CODE     ---       #215
      01001268H   LINE      CODE     ---       #216
      01001274H   LINE      CODE     ---       #217
      ---         BLOCKEND  ---      ---       LVL=0

      01001280H   BLOCK     CODE     ---       LVL=0
      00000007H   SYMBOL    DATA     BYTE      state
      01001280H   BLOCK     CODE     NEAR LAB  LVL=1
      00000025H.5 SYMBOL    BIT      BIT       DDIC_Control1
      00000025H.6 SYMBOL    BIT      BIT       DDIC_Control2
      00000025H.7 SYMBOL    BIT      BIT       DDIC_Control3
      ---         BLOCKEND  ---      ---       LVL=1
      01001280H   LINE      CODE     ---       #227
      01001280H   LINE      CODE     ---       #228
      01001280H   LINE      CODE     ---       #233
      0100128CH   LINE      CODE     ---       #234
      0100128CH   LINE      CODE     ---       #235
      0100128CH   LINE      CODE     ---       #236
      0100128EH   LINE      CODE     ---       #237
      01001290H   LINE      CODE     ---       #238
      01001292H   LINE      CODE     ---       #239
      01001294H   LINE      CODE     ---       #241
      01001294H   LINE      CODE     ---       #242
      01001296H   LINE      CODE     ---       #243
      01001298H   LINE      CODE     ---       #244
      0100129AH   LINE      CODE     ---       #245
      0100129CH   LINE      CODE     ---       #247
      0100129CH   LINE      CODE     ---       #248
LX51 LINKER/LOCATER V4.66.66.0                                                        09/07/2020  22:21:36  PAGE 41


      0100129EH   LINE      CODE     ---       #249
      010012A0H   LINE      CODE     ---       #250
      010012A2H   LINE      CODE     ---       #251
      010012A2H   LINE      CODE     ---       #253
      010012A2H   LINE      CODE     ---       #254
      010012A2H   LINE      CODE     ---       #255
      010012A2H   LINE      CODE     ---       #256
      010012AEH   LINE      CODE     ---       #257
      010012BAH   LINE      CODE     ---       #258
      ---         BLOCKEND  ---      ---       LVL=0

      010010B2H   BLOCK     CODE     ---       LVL=0
      00000007H   SYMBOL    DATA     BYTE      DDIC_windControl
      010010B2H   BLOCK     CODE     NEAR LAB  LVL=1
      00000026H.0 SYMBOL    BIT      BIT       DDIC_Control1
      00000026H.1 SYMBOL    BIT      BIT       DDIC_Control2
      00000026H.2 SYMBOL    BIT      BIT       DDIC_Control3
      00000026H.3 SYMBOL    BIT      BIT       DDIC_Control4
      ---         BLOCKEND  ---      ---       LVL=1
      010010B2H   LINE      CODE     ---       #270
      010010B2H   LINE      CODE     ---       #271
      010010B2H   LINE      CODE     ---       #278
      010010C3H   LINE      CODE     ---       #279
      010010C3H   LINE      CODE     ---       #280
      010010C3H   LINE      CODE     ---       #281
      010010C5H   LINE      CODE     ---       #282
      010010C5H   LINE      CODE     ---       #283
      010010C5H   LINE      CODE     ---       #284
      010010C5H   LINE      CODE     ---       #285
      010010C7H   LINE      CODE     ---       #287
      010010C7H   LINE      CODE     ---       #288
      010010C9H   LINE      CODE     ---       #289
      010010CBH   LINE      CODE     ---       #290
      010010CBH   LINE      CODE     ---       #291
      010010CBH   LINE      CODE     ---       #292
      010010CDH   LINE      CODE     ---       #294
      010010CDH   LINE      CODE     ---       #295
      010010CFH   LINE      CODE     ---       #296
      010010D1H   LINE      CODE     ---       #297
      010010D3H   LINE      CODE     ---       #298
      010010D5H   LINE      CODE     ---       #299
      010010D7H   LINE      CODE     ---       #301
      010010D7H   LINE      CODE     ---       #302
      010010D9H   LINE      CODE     ---       #303
      010010DBH   LINE      CODE     ---       #304
      010010DDH   LINE      CODE     ---       #305
      010010DFH   LINE      CODE     ---       #306
      010010E1H   LINE      CODE     ---       #308
      010010E1H   LINE      CODE     ---       #309
      010010E3H   LINE      CODE     ---       #310
      010010E5H   LINE      CODE     ---       #311
      010010E7H   LINE      CODE     ---       #312
      010010E9H   LINE      CODE     ---       #313
      010010E9H   LINE      CODE     ---       #315
      010010E9H   LINE      CODE     ---       #316
      010010E9H   LINE      CODE     ---       #317
      010010E9H   LINE      CODE     ---       #318
      010010F5H   LINE      CODE     ---       #319
      01001101H   LINE      CODE     ---       #320
      0100110DH   LINE      CODE     ---       #321
      ---         BLOCKEND  ---      ---       LVL=0

      01001045H   BLOCK     CODE     ---       LVL=0
      ---         BLOCKEND  ---      ---       LVL=0

LX51 LINKER/LOCATER V4.66.66.0                                                        09/07/2020  22:21:36  PAGE 42


      0100105FH   BLOCK     CODE     ---       LVL=0
      0000006BH   SYMBOL    DATA     BYTE      bits
      0000006CH   SYMBOL    DATA     BYTE      num
      00000027H.3 SYMBOL    BIT      BIT       blink
      0000006DH   SYMBOL    DATA     BYTE      select
      01001063H   BLOCK     CODE     NEAR LAB  LVL=1
      0000006DH   SYMBOL    DATA     BYTE      select
      ---         BLOCKEND  ---      ---       LVL=1
      0100105FH   LINE      CODE     ---       #449
      01001063H   LINE      CODE     ---       #450
      01001063H   LINE      CODE     ---       #453
      01001066H   LINE      CODE     ---       #454
      01001066H   LINE      CODE     ---       #455
      010010A8H   LINE      CODE     ---       #456
      010010B1H   LINE      CODE     ---       #457
      ---         BLOCKEND  ---      ---       LVL=0

      010011E1H   BLOCK     CODE     ---       LVL=0
      00000068H   SYMBOL    DATA     BYTE      LCD_time_hour
      00000069H   SYMBOL    DATA     BYTE      LCD_time_min
      0000006AH   SYMBOL    DATA     BYTE      LCD_time_week
      00000027H.0 SYMBOL    BIT      BIT       LCD_time_hour_flag
      00000027H.1 SYMBOL    BIT      BIT       LCD_time_min_flag
      00000027H.2 SYMBOL    BIT      BIT       LCD_time_week_flag
      010011E1H   LINE      CODE     ---       #466
      010011E7H   LINE      CODE     ---       #467
      010011E7H   LINE      CODE     ---       #469
      010011F7H   LINE      CODE     ---       #470
      01001208H   LINE      CODE     ---       #472
      01001218H   LINE      CODE     ---       #473
      01001229H   LINE      CODE     ---       #475
      ---         BLOCKEND  ---      ---       LVL=0

      01001546H   BLOCK     CODE     ---       LVL=0
      01001546H   LINE      CODE     ---       #486
      01001546H   LINE      CODE     ---       #487
      01001546H   LINE      CODE     ---       #488
      0100154FH   LINE      CODE     ---       #489
      01001558H   LINE      CODE     ---       #490
      01001561H   LINE      CODE     ---       #491
      ---         BLOCKEND  ---      ---       LVL=0

      0100117DH   BLOCK     CODE     ---       LVL=0
      00000067H   SYMBOL    DATA     WORD      DDIC_temperature
      0100117DH   LINE      CODE     ---       #501
      01001181H   LINE      CODE     ---       #502
      01001181H   LINE      CODE     ---       #504
      0100118CH   LINE      CODE     ---       #505
      01001195H   LINE      CODE     ---       #507
      0100119EH   LINE      CODE     ---       #508
      010011A5H   LINE      CODE     ---       #509
      010011C6H   LINE      CODE     ---       #510
      010011D8H   LINE      CODE     ---       #512
      ---         BLOCKEND  ---      ---       LVL=0

      ---         MODULE    ---      ---       BM8563
      0000001DH   PUBLIC    DATA     BYTE      BM8563_min
      0000001CH   PUBLIC    DATA     BYTE      BM8563_hour
      010014F5H   PUBLIC    CODE     ---       Time_init
      010017DCH   PUBLIC    CODE     ---       BM8563_init
      0100130AH   PUBLIC    CODE     ---       BM8563_get_time
      0100170CH   PUBLIC    CODE     ---       _Bcd_dec
      010015B1H   PUBLIC    CODE     ---       _BM8563_read_add_byte
      01001419H   PUBLIC    CODE     ---       BM8563_IIC_ReadByte
      01001662H   PUBLIC    CODE     ---       _BM8563_send_add_byte
LX51 LINKER/LOCATER V4.66.66.0                                                        09/07/2020  22:21:36  PAGE 43


      01001344H   PUBLIC    CODE     ---       _BM8563_IIC_WriteByte
      01001453H   PUBLIC    CODE     ---       BM8563_IIC_Wait_ACK
      010016D0H   PUBLIC    CODE     ---       BM8563_IIC_Stop
      010016BBH   PUBLIC    CODE     ---       BM8563_IIC_Start
      01001836H   PUBLIC    CODE     ---       IIC_Init
      01001784H   PUBLIC    CODE     ---       _Delayus
      000000C8H.2 SFRSYM    DATA     BIT       TRX
      000000FFH   SFRSYM    DATA     BYTE      OPREG
      00000080H   SFRSYM    DATA     BYTE      P0
      00000090H   SFRSYM    DATA     BYTE      P1
      000000A0H   SFRSYM    DATA     BYTE      P2
      000000A8H.4 SFRSYM    DATA     BIT       EUART
      0000008EH   SFRSYM    DATA     BYTE      TMCON
      000000B0H   SFRSYM    DATA     BYTE      P3
      000000D0H.6 SFRSYM    DATA     BIT       AC
      000000C0H   SFRSYM    DATA     BYTE      P4
      0000008FH   SFRSYM    DATA     BYTE      OTCON
      000000D8H   SFRSYM    DATA     BYTE      P5
      000000A8H.7 SFRSYM    DATA     BIT       EA
      000000C8H.5 SFRSYM    DATA     BIT       RCLKX
      000000C8H.4 SFRSYM    DATA     BIT       TCLKX
      000000C8H.3 SFRSYM    DATA     BIT       EXENX
      000000A8H.6 SFRSYM    DATA     BIT       EADC
      000000C9H   SFRSYM    DATA     BYTE      TXMOD
      000000C8H   SFRSYM    DATA     BYTE      TXCON
      000000A8H   SFRSYM    DATA     BYTE      IE
      00000085H   SFRSYM    DATA     BYTE      DPH1
      000000E9H   SFRSYM    DATA     BYTE      EXA0
      000000EAH   SFRSYM    DATA     BYTE      EXA1
      000000FEH   SFRSYM    DATA     BYTE      OPINX
      000000EBH   SFRSYM    DATA     BYTE      EXA2
      000000ECH   SFRSYM    DATA     BYTE      EXA3
      00000084H   SFRSYM    DATA     BYTE      DPL1
      000000C8H   SFRSYM    DATA     BIT       CP
      000000EFH   SFRSYM    DATA     BYTE      OPERCON
      0000009BH   SFRSYM    DATA     BYTE      P0PH
      000000B8H   SFRSYM    DATA     BYTE      IP
      00000092H   SFRSYM    DATA     BYTE      P1PH
      00000098H   SFRSYM    DATA     BIT       RI
      000000A2H   SFRSYM    DATA     BYTE      P2PH
      000000D0H.7 SFRSYM    DATA     BIT       CY
      000000B2H   SFRSYM    DATA     BYTE      P3PH
      00000098H.1 SFRSYM    DATA     BIT       TI
      000000CEH   SFRSYM    DATA     BYTE      TXINX
      000000C2H   SFRSYM    DATA     BYTE      P4PH
      000000B8H.1 SFRSYM    DATA     BIT       IPT0
      000000DAH   SFRSYM    DATA     BYTE      P5PH
      000000B8H.3 SFRSYM    DATA     BIT       IPT1
      000000D8H.5 SFRSYM    DATA     BIT       BM8563_SDA
      000000B8H.5 SFRSYM    DATA     BIT       IPT2
      00000081H   SFRSYM    DATA     BYTE      SP
      000000D0H.2 SFRSYM    DATA     BIT       OV
      000000F4H   SFRSYM    DATA     BYTE      IAPADE
      0000009CH   SFRSYM    DATA     BYTE      P0VO
      00000094H   SFRSYM    DATA     BYTE      P1VO
      000000EEH   SFRSYM    DATA     BYTE      EXBH
      000000A3H   SFRSYM    DATA     BYTE      P2VO
      000000F3H   SFRSYM    DATA     BYTE      IAPADH
      000000B3H   SFRSYM    DATA     BYTE      P3VO
      000000D8H.4 SFRSYM    DATA     BIT       BM8563_SCL
      000000ADH   SFRSYM    DATA     BYTE      ADCCON
      000000C8H.1 SFRSYM    DATA     BIT       TX
      000000EDH   SFRSYM    DATA     BYTE      EXBL
      000000F2H   SFRSYM    DATA     BYTE      IAPADL
      00000080H   SFRSYM    DATA     BIT       P00
LX51 LINKER/LOCATER V4.66.66.0                                                        09/07/2020  22:21:36  PAGE 44


      00000090H   SFRSYM    DATA     BIT       P10
      00000080H.1 SFRSYM    DATA     BIT       P01
      00000099H   SFRSYM    DATA     BYTE      SBUF
      00000087H   SFRSYM    DATA     BYTE      PCON
      000000A0H   SFRSYM    DATA     BIT       P20
      00000090H.1 SFRSYM    DATA     BIT       P11
      00000080H.2 SFRSYM    DATA     BIT       P02
      000000B6H   SFRSYM    DATA     BYTE      CMPCFG
      000000B0H   SFRSYM    DATA     BIT       P30
      000000A0H.1 SFRSYM    DATA     BIT       P21
      00000090H.2 SFRSYM    DATA     BIT       P12
      00000080H.3 SFRSYM    DATA     BIT       P03
      000000C0H   SFRSYM    DATA     BIT       P40
      000000B0H.1 SFRSYM    DATA     BIT       P31
      000000A0H.2 SFRSYM    DATA     BIT       P22
      00000090H.3 SFRSYM    DATA     BIT       P13
      00000080H.4 SFRSYM    DATA     BIT       P04
      00000098H   SFRSYM    DATA     BYTE      SCON
      000000D8H   SFRSYM    DATA     BIT       P50
      000000C0H.1 SFRSYM    DATA     BIT       P41
      000000B0H.2 SFRSYM    DATA     BIT       P32
      000000A0H.3 SFRSYM    DATA     BIT       P23
      00000090H.4 SFRSYM    DATA     BIT       P14
      00000080H.5 SFRSYM    DATA     BIT       P05
      000000F5H   SFRSYM    DATA     BYTE      IAPDAT
      00000088H   SFRSYM    DATA     BYTE      TCON
      00000089H   SFRSYM    DATA     BYTE      TMOD
      000000D8H.1 SFRSYM    DATA     BIT       P51
      000000C0H.2 SFRSYM    DATA     BIT       P42
      000000B0H.3 SFRSYM    DATA     BIT       P33
      000000A0H.4 SFRSYM    DATA     BIT       P24
      00000090H.5 SFRSYM    DATA     BIT       P15
      00000080H.6 SFRSYM    DATA     BIT       P06
      000000B8H   SFRSYM    DATA     BIT       IPINT0
      000000D8H.2 SFRSYM    DATA     BIT       P52
      000000C0H.3 SFRSYM    DATA     BIT       P43
      000000B0H.4 SFRSYM    DATA     BIT       P34
      000000A0H.5 SFRSYM    DATA     BIT       P25
      00000090H.6 SFRSYM    DATA     BIT       P16
      00000080H.7 SFRSYM    DATA     BIT       P07
      000000B8H.2 SFRSYM    DATA     BIT       IPINT1
      000000D8H.3 SFRSYM    DATA     BIT       P53
      000000C0H.4 SFRSYM    DATA     BIT       P44
      000000B0H.5 SFRSYM    DATA     BIT       P35
      000000A0H.6 SFRSYM    DATA     BIT       P26
      00000090H.7 SFRSYM    DATA     BIT       P17
      000000FDH   SFRSYM    DATA     BYTE      CRCREG
      000000D8H.4 SFRSYM    DATA     BIT       P54
      000000C0H.5 SFRSYM    DATA     BIT       P45
      000000B0H.6 SFRSYM    DATA     BIT       P36
      000000A0H.7 SFRSYM    DATA     BIT       P27
      000000D8H.5 SFRSYM    DATA     BIT       P55
      000000C0H.6 SFRSYM    DATA     BIT       P46
      000000B0H.7 SFRSYM    DATA     BIT       P37
      000000C0H.7 SFRSYM    DATA     BIT       P47
      000000C8H.6 SFRSYM    DATA     BIT       EXFX
      00000093H   SFRSYM    DATA     BYTE      DDRCON
      000000F6H   SFRSYM    DATA     BYTE      IAPCTL
      000000A9H   SFRSYM    DATA     BYTE      IE1
      000000AAH   SFRSYM    DATA     BYTE      IE2
      000000F0H   SFRSYM    DATA     BYTE      B
      000000B7H   SFRSYM    DATA     BYTE      CMPCON
      000000F1H   SFRSYM    DATA     BYTE      IAPKEY
      000000FBH   SFRSYM    DATA     BYTE      BTMCON
      000000D4H   SFRSYM    DATA     BYTE      PWMCFG
LX51 LINKER/LOCATER V4.66.66.0                                                        09/07/2020  22:21:36  PAGE 45


      000000E0H   SFRSYM    DATA     BYTE      ACC
      000000CBH   SFRSYM    DATA     BYTE      RCAPXH
      000000A8H.1 SFRSYM    DATA     BIT       ET0
      000000FCH   SFRSYM    DATA     BYTE      CRCINX
      00000088H.5 SFRSYM    DATA     BIT       TF0
      000000A8H.3 SFRSYM    DATA     BIT       ET1
      000000ABH   SFRSYM    DATA     BYTE      ADCCFG0
      000000B9H   SFRSYM    DATA     BYTE      IP1
      00000088H.7 SFRSYM    DATA     BIT       TF1
      000000A8H.5 SFRSYM    DATA     BIT       ET2
      000000ACH   SFRSYM    DATA     BYTE      ADCCFG1
      000000BAH   SFRSYM    DATA     BYTE      IP2
      00000098H.2 SFRSYM    DATA     BIT       RB8
      000000B5H   SFRSYM    DATA     BYTE      ADCCFG2
      000000CAH   SFRSYM    DATA     BYTE      RCAPXL
      0000008CH   SFRSYM    DATA     BYTE      TH0
      0000008DH   SFRSYM    DATA     BYTE      TH1
      00000098H.3 SFRSYM    DATA     BIT       TB8
      000000D0H   SFRSYM    DATA     BIT       P
      00000098H.7 SFRSYM    DATA     BIT       SM0
      0000008AH   SFRSYM    DATA     BYTE      TL0
      00000098H.6 SFRSYM    DATA     BIT       SM1
      000000CFH   SFRSYM    DATA     BYTE      WDTCON
      0000008BH   SFRSYM    DATA     BYTE      TL1
      00000098H.5 SFRSYM    DATA     BIT       SM2
      000000D5H   SFRSYM    DATA     BYTE      PWMDFR
      000000D0H.3 SFRSYM    DATA     BIT       RS0
      00000088H.4 SFRSYM    DATA     BIT       TR0
      000000D0H.4 SFRSYM    DATA     BIT       RS1
      000000D3H   SFRSYM    DATA     BYTE      PWMCON
      000000D7H   SFRSYM    DATA     BYTE      PWMMOD
      00000088H.6 SFRSYM    DATA     BIT       TR1
      000000B8H.4 SFRSYM    DATA     BIT       IPUART
      000000D6H   SFRSYM    DATA     BYTE      PWMFLT
      00000083H   SFRSYM    DATA     BYTE      DPH
      00000082H   SFRSYM    DATA     BYTE      DPL
      000000A8H   SFRSYM    DATA     BIT       EINT0
      0000009AH   SFRSYM    DATA     BYTE      P0CON
      000000A8H.2 SFRSYM    DATA     BIT       EINT1
      000000B8H.6 SFRSYM    DATA     BIT       IPADC
      000000B4H   SFRSYM    DATA     BYTE      INT0F
      00000091H   SFRSYM    DATA     BYTE      P1CON
      000000BCH   SFRSYM    DATA     BYTE      INT1F
      000000A1H   SFRSYM    DATA     BYTE      P2CON
      000000BEH   SFRSYM    DATA     BYTE      INT2F
      000000B1H   SFRSYM    DATA     BYTE      P3CON
      00000098H.4 SFRSYM    DATA     BIT       REN
      000000C1H   SFRSYM    DATA     BYTE      P4CON
      000000D9H   SFRSYM    DATA     BYTE      P5CON
      000000AFH   SFRSYM    DATA     BYTE      ADCVH
      00000086H   SFRSYM    DATA     BYTE      DPS
      00000095H   SFRSYM    DATA     BYTE      US0CON0
      000000F7H   SFRSYM    DATA     BYTE      EXADH
      000000A4H   SFRSYM    DATA     BYTE      US1CON0
      0000009DH   SFRSYM    DATA     BYTE      US0CON1
      000000AEH   SFRSYM    DATA     BYTE      ADCVL
      000000C4H   SFRSYM    DATA     BYTE      US2CON0
      000000A5H   SFRSYM    DATA     BYTE      US1CON1
      0000009EH   SFRSYM    DATA     BYTE      US0CON2
      000000C5H   SFRSYM    DATA     BYTE      US2CON1
      000000A6H   SFRSYM    DATA     BYTE      US1CON2
      0000009FH   SFRSYM    DATA     BYTE      US0CON3
      000000C6H   SFRSYM    DATA     BYTE      US2CON2
      000000A7H   SFRSYM    DATA     BYTE      US1CON3
      000000BBH   SFRSYM    DATA     BYTE      INT0R
LX51 LINKER/LOCATER V4.66.66.0                                                        09/07/2020  22:21:36  PAGE 46


      000000C7H   SFRSYM    DATA     BYTE      US2CON3
      000000BDH   SFRSYM    DATA     BYTE      INT1R
      000000BFH   SFRSYM    DATA     BYTE      INT2R
      000000C8H.7 SFRSYM    DATA     BIT       TFX
      00000096H   SFRSYM    DATA     BYTE      IOHCON0
      00000097H   SFRSYM    DATA     BYTE      IOHCON1
      000000CDH   SFRSYM    DATA     BYTE      THX
      000000D0H.5 SFRSYM    DATA     BIT       F0
      000000D0H.1 SFRSYM    DATA     BIT       F1
      000000CCH   SFRSYM    DATA     BYTE      TLX
      000000D0H   SFRSYM    DATA     BYTE      PSW
      00000027H.4 SYMBOL    BIT      BIT       ack

      0100177DH   BLOCK     CODE     ---       LVL=0
      ---         BLOCKEND  ---      ---       LVL=0

      01001784H   BLOCK     CODE     ---       LVL=0
      00000007H   SYMBOL    DATA     BYTE      i
      01001784H   LINE      CODE     ---       #55
      01001784H   LINE      CODE     ---       #56
      01001784H   LINE      CODE     ---       #57
      0100178AH   LINE      CODE     ---       #58
      ---         BLOCKEND  ---      ---       LVL=0

      01001836H   BLOCK     CODE     ---       LVL=0
      01001836H   LINE      CODE     ---       #69
      01001836H   LINE      CODE     ---       #70
      01001836H   LINE      CODE     ---       #71
      01001839H   LINE      CODE     ---       #72
      0100183BH   LINE      CODE     ---       #73
      0100183DH   LINE      CODE     ---       #74
      ---         BLOCKEND  ---      ---       LVL=0

      010016BBH   BLOCK     CODE     ---       LVL=0
      010016BBH   LINE      CODE     ---       #85
      010016BBH   LINE      CODE     ---       #86
      010016BBH   LINE      CODE     ---       #87
      010016BEH   LINE      CODE     ---       #88
      010016C0H   LINE      CODE     ---       #89
      010016C2H   LINE      CODE     ---       #90
      010016C7H   LINE      CODE     ---       #91
      010016C9H   LINE      CODE     ---       #92
      010016CBH   LINE      CODE     ---       #93
      ---         BLOCKEND  ---      ---       LVL=0

      010016D0H   BLOCK     CODE     ---       LVL=0
      010016D0H   LINE      CODE     ---       #105
      010016D0H   LINE      CODE     ---       #106
      010016D0H   LINE      CODE     ---       #107
      010016D3H   LINE      CODE     ---       #108
      010016D5H   LINE      CODE     ---       #109
      010016D7H   LINE      CODE     ---       #110
      010016DCH   LINE      CODE     ---       #111
      010016DEH   LINE      CODE     ---       #112
      010016E0H   LINE      CODE     ---       #113
      ---         BLOCKEND  ---      ---       LVL=0

      01001448H   BLOCK     CODE     ---       LVL=0
      ---         BLOCKEND  ---      ---       LVL=0

      01001453H   BLOCK     CODE     ---       LVL=0
      00000005H   SYMBOL    DATA     BYTE      i
      01001453H   BLOCK     CODE     NEAR LAB  LVL=1
      00000005H   SYMBOL    DATA     BYTE      i
      ---         BLOCKEND  ---      ---       LVL=1
LX51 LINKER/LOCATER V4.66.66.0                                                        09/07/2020  22:21:36  PAGE 47


      01001453H   LINE      CODE     ---       #125
      01001453H   LINE      CODE     ---       #126
      01001453H   LINE      CODE     ---       #127
      01001455H   LINE      CODE     ---       #128
      0100145BH   LINE      CODE     ---       #129
      0100145BH   LINE      CODE     ---       #130
      0100145EH   LINE      CODE     ---       #131
      01001467H   LINE      CODE     ---       #132
      0100146AH   LINE      CODE     ---       #133
      0100146CH   LINE      CODE     ---       #134
      0100146FH   LINE      CODE     ---       #135
      ---         BLOCKEND  ---      ---       LVL=0

      01001344H   BLOCK     CODE     ---       LVL=0
      00000005H   SYMBOL    DATA     BYTE      byte
      01001346H   BLOCK     CODE     NEAR LAB  LVL=1
      00000004H   SYMBOL    DATA     BYTE      len
      ---         BLOCKEND  ---      ---       LVL=1
      01001344H   LINE      CODE     ---       #147
      01001346H   LINE      CODE     ---       #148
      01001346H   LINE      CODE     ---       #149
      01001348H   LINE      CODE     ---       #150
      0100134AH   LINE      CODE     ---       #151
      0100134FH   LINE      CODE     ---       #152
      0100134FH   LINE      CODE     ---       #153
      0100134FH   LINE      CODE     ---       #154
      01001353H   LINE      CODE     ---       #155
      01001353H   LINE      CODE     ---       #156
      01001355H   LINE      CODE     ---       #157
      01001357H   LINE      CODE     ---       #159
      01001357H   LINE      CODE     ---       #160
      01001359H   LINE      CODE     ---       #161
      01001359H   LINE      CODE     ---       #162
      0100135EH   LINE      CODE     ---       #163
      01001360H   LINE      CODE     ---       #164
      01001364H   LINE      CODE     ---       #165
      01001369H   LINE      CODE     ---       #166
      0100136BH   LINE      CODE     ---       #167
      01001370H   LINE      CODE     ---       #168
      01001374H   LINE      CODE     ---       #169
      01001376H   LINE      CODE     ---       #170
      01001378H   LINE      CODE     ---       #171
      ---         BLOCKEND  ---      ---       LVL=0

      01001662H   BLOCK     CODE     ---       LVL=0
      00000002H   SYMBOL    DATA     BYTE      add
      00000003H   SYMBOL    DATA     BYTE      bat
      01001662H   LINE      CODE     ---       #183
      01001666H   LINE      CODE     ---       #184
      01001666H   LINE      CODE     ---       #186
      01001669H   LINE      CODE     ---       #187
      0100166EH   LINE      CODE     ---       #188
      01001671H   LINE      CODE     ---       #189
      01001673H   LINE      CODE     ---       #190
      01001673H   LINE      CODE     ---       #191
      01001673H   LINE      CODE     ---       #192
      01001676H   LINE      CODE     ---       #193
      ---         BLOCKEND  ---      ---       LVL=0

      01001419H   BLOCK     CODE     ---       LVL=0
      01001419H   BLOCK     CODE     NEAR LAB  LVL=1
      00000005H   SYMBOL    DATA     BYTE      len
      00000004H   SYMBOL    DATA     BYTE      Byte
      ---         BLOCKEND  ---      ---       LVL=1
      01001419H   LINE      CODE     ---       #207
LX51 LINKER/LOCATER V4.66.66.0                                                        09/07/2020  22:21:36  PAGE 48


      01001419H   LINE      CODE     ---       #208
      01001419H   LINE      CODE     ---       #209
      0100141CH   LINE      CODE     ---       #210
      0100141EH   LINE      CODE     ---       #211
      01001424H   LINE      CODE     ---       #212
      01001424H   LINE      CODE     ---       #213
      01001424H   LINE      CODE     ---       #214
      01001426H   LINE      CODE     ---       #215
      01001428H   LINE      CODE     ---       #216
      01001428H   LINE      CODE     ---       #217
      0100142BH   LINE      CODE     ---       #218
      0100142FH   LINE      CODE     ---       #219
      01001435H   LINE      CODE     ---       #220
      0100143AH   LINE      CODE     ---       #221
      0100143CH   LINE      CODE     ---       #222
      01001441H   LINE      CODE     ---       #223
      01001445H   LINE      CODE     ---       #224
      01001447H   LINE      CODE     ---       #225
      ---         BLOCKEND  ---      ---       LVL=0
      00000005H   SYMBOL    DATA     BYTE      Ack
      00000004H   SYMBOL    DATA     BYTE      i
      00000003H   SYMBOL    DATA     BYTE      ReadValue

      010015B1H   BLOCK     CODE     ---       LVL=0
      00000003H   SYMBOL    DATA     BYTE      add
      010015B3H   BLOCK     CODE     NEAR LAB  LVL=1
      00000005H   SYMBOL    DATA     BYTE      temp
      ---         BLOCKEND  ---      ---       LVL=1
      010015B1H   LINE      CODE     ---       #287
      010015B3H   LINE      CODE     ---       #288
      010015B3H   LINE      CODE     ---       #290
      010015B6H   LINE      CODE     ---       #291
      010015B8H   LINE      CODE     ---       #292
      010015B8H   LINE      CODE     ---       #293
      010015B8H   LINE      CODE     ---       #294
      010015BBH   LINE      CODE     ---       #295
      010015BEH   LINE      CODE     ---       #296
      010015C3H   LINE      CODE     ---       #297
      010015C6H   LINE      CODE     ---       #298
      010015CBH   LINE      CODE     ---       #299
      010015CEH   LINE      CODE     ---       #300
      010015D0H   LINE      CODE     ---       #301
      ---         BLOCKEND  ---      ---       LVL=0
      00000004H   SYMBOL    DATA     BYTE      sla
      00000001H   SYMBOL    DATA     ---       s

      0100170CH   BLOCK     CODE     ---       LVL=0
      00000007H   SYMBOL    DATA     BYTE      bat
      0100170CH   BLOCK     CODE     NEAR LAB  LVL=1
      00000006H   SYMBOL    DATA     BYTE      temp1
      00000007H   SYMBOL    DATA     BYTE      temp2
      00000007H   SYMBOL    DATA     BYTE      tol
      ---         BLOCKEND  ---      ---       LVL=1
      0100170CH   LINE      CODE     ---       #394
      0100170CH   LINE      CODE     ---       #395
      0100170CH   LINE      CODE     ---       #397
      01001710H   LINE      CODE     ---       #398
      01001716H   LINE      CODE     ---       #399
      0100171CH   LINE      CODE     ---       #400
      0100171CH   LINE      CODE     ---       #401
      ---         BLOCKEND  ---      ---       LVL=0

      0100130AH   BLOCK     CODE     ---       LVL=0
      0100130AH   BLOCK     CODE     NEAR LAB  LVL=1
      00000067H   SYMBOL    DATA     ---       time_ASC
LX51 LINKER/LOCATER V4.66.66.0                                                        09/07/2020  22:21:36  PAGE 49


      0000006BH   SYMBOL    DATA     ---       time_BCD
      ---         BLOCKEND  ---      ---       LVL=1
      0100130AH   LINE      CODE     ---       #432
      0100130AH   LINE      CODE     ---       #433
      0100130AH   LINE      CODE     ---       #438
      01001314H   LINE      CODE     ---       #439
      0100131EH   LINE      CODE     ---       #440
      01001328H   LINE      CODE     ---       #445
      0100132FH   LINE      CODE     ---       #446
      01001336H   LINE      CODE     ---       #447
      0100133DH   LINE      CODE     ---       #453
      01001340H   LINE      CODE     ---       #454
      01001343H   LINE      CODE     ---       #455
      ---         BLOCKEND  ---      ---       LVL=0

      010017DCH   BLOCK     CODE     ---       LVL=0
      010017DCH   LINE      CODE     ---       #466
      010017DCH   LINE      CODE     ---       #467
      010017DCH   LINE      CODE     ---       #468
      010017DFH   LINE      CODE     ---       #469
      010017E5H   LINE      CODE     ---       #470
      ---         BLOCKEND  ---      ---       LVL=0

      010014F5H   BLOCK     CODE     ---       LVL=0
      010014F5H   LINE      CODE     ---       #479
      010014F5H   LINE      CODE     ---       #480
      010014F5H   LINE      CODE     ---       #481
      010014FCH   LINE      CODE     ---       #482
      01001503H   LINE      CODE     ---       #483
      0100150AH   LINE      CODE     ---       #484
      01001511H   LINE      CODE     ---       #485
      01001518H   LINE      CODE     ---       #486
      ---         BLOCKEND  ---      ---       LVL=0

      ---         MODULE    ---      ---       NST1001
      00000065H   PUBLIC    DATA     WORD      temp_num
      00000026H.7 PUBLIC    BIT      BIT       temp_over_flag
      00000026H.6 PUBLIC    BIT      BIT       temp_start_flag
      00000064H   PUBLIC    DATA     BYTE      temp_collect_timer2
      00000026H.5 PUBLIC    BIT      BIT       temp_judge_flag
      00000062H   PUBLIC    DATA     WORD      N_Temper
      00000061H   PUBLIC    DATA     BYTE      temp_over_timer2
      00000026H.4 PUBLIC    BIT      BIT       int1_first_flag
      0100099FH   PUBLIC    CODE     ---       GetNST1001Temp
      000000C8H.2 SFRSYM    DATA     BIT       TRX
      000000FFH   SFRSYM    DATA     BYTE      OPREG
      00000080H   SFRSYM    DATA     BYTE      P0
      00000090H   SFRSYM    DATA     BYTE      P1
      000000A0H   SFRSYM    DATA     BYTE      P2
      000000A8H.4 SFRSYM    DATA     BIT       EUART
      0000008EH   SFRSYM    DATA     BYTE      TMCON
      000000B0H   SFRSYM    DATA     BYTE      P3
      000000D0H.6 SFRSYM    DATA     BIT       AC
      000000C0H   SFRSYM    DATA     BYTE      P4
      0000008FH   SFRSYM    DATA     BYTE      OTCON
      000000D8H   SFRSYM    DATA     BYTE      P5
      000000A8H.7 SFRSYM    DATA     BIT       EA
      000000C8H.5 SFRSYM    DATA     BIT       RCLKX
      000000C8H.4 SFRSYM    DATA     BIT       TCLKX
      000000C8H.3 SFRSYM    DATA     BIT       EXENX
      000000A8H.6 SFRSYM    DATA     BIT       EADC
      000000C9H   SFRSYM    DATA     BYTE      TXMOD
      000000C8H   SFRSYM    DATA     BYTE      TXCON
      000000A8H   SFRSYM    DATA     BYTE      IE
      00000085H   SFRSYM    DATA     BYTE      DPH1
LX51 LINKER/LOCATER V4.66.66.0                                                        09/07/2020  22:21:36  PAGE 50


      000000E9H   SFRSYM    DATA     BYTE      EXA0
      000000EAH   SFRSYM    DATA     BYTE      EXA1
      000000FEH   SFRSYM    DATA     BYTE      OPINX
      000000EBH   SFRSYM    DATA     BYTE      EXA2
      000000ECH   SFRSYM    DATA     BYTE      EXA3
      00000084H   SFRSYM    DATA     BYTE      DPL1
      000000C8H   SFRSYM    DATA     BIT       CP
      000000EFH   SFRSYM    DATA     BYTE      OPERCON
      0000009BH   SFRSYM    DATA     BYTE      P0PH
      000000B8H   SFRSYM    DATA     BYTE      IP
      00000092H   SFRSYM    DATA     BYTE      P1PH
      00000098H   SFRSYM    DATA     BIT       RI
      000000A2H   SFRSYM    DATA     BYTE      P2PH
      000000D0H.7 SFRSYM    DATA     BIT       CY
      000000B2H   SFRSYM    DATA     BYTE      P3PH
      00000098H.1 SFRSYM    DATA     BIT       TI
      000000CEH   SFRSYM    DATA     BYTE      TXINX
      000000C2H   SFRSYM    DATA     BYTE      P4PH
      000000B8H.1 SFRSYM    DATA     BIT       IPT0
      000000DAH   SFRSYM    DATA     BYTE      P5PH
      000000B8H.3 SFRSYM    DATA     BIT       IPT1
      000000B8H.5 SFRSYM    DATA     BIT       IPT2
      00000081H   SFRSYM    DATA     BYTE      SP
      000000D0H.2 SFRSYM    DATA     BIT       OV
      000000F4H   SFRSYM    DATA     BYTE      IAPADE
      0000009CH   SFRSYM    DATA     BYTE      P0VO
      00000094H   SFRSYM    DATA     BYTE      P1VO
      000000EEH   SFRSYM    DATA     BYTE      EXBH
      000000A3H   SFRSYM    DATA     BYTE      P2VO
      000000F3H   SFRSYM    DATA     BYTE      IAPADH
      000000B3H   SFRSYM    DATA     BYTE      P3VO
      000000ADH   SFRSYM    DATA     BYTE      ADCCON
      000000C8H.1 SFRSYM    DATA     BIT       TX
      000000EDH   SFRSYM    DATA     BYTE      EXBL
      000000F2H   SFRSYM    DATA     BYTE      IAPADL
      00000080H.6 SFRSYM    DATA     BIT       NST1001_DQ
      00000080H   SFRSYM    DATA     BIT       P00
      00000090H   SFRSYM    DATA     BIT       P10
      00000080H.1 SFRSYM    DATA     BIT       P01
      00000099H   SFRSYM    DATA     BYTE      SBUF
      00000087H   SFRSYM    DATA     BYTE      PCON
      000000D8H.3 SFRSYM    DATA     BIT       NST1001_IO
      000000A0H   SFRSYM    DATA     BIT       P20
      00000090H.1 SFRSYM    DATA     BIT       P11
      00000080H.2 SFRSYM    DATA     BIT       P02
      000000B6H   SFRSYM    DATA     BYTE      CMPCFG
      000000B0H   SFRSYM    DATA     BIT       P30
      000000A0H.1 SFRSYM    DATA     BIT       P21
      00000090H.2 SFRSYM    DATA     BIT       P12
      00000080H.3 SFRSYM    DATA     BIT       P03
      000000C0H   SFRSYM    DATA     BIT       P40
      000000B0H.1 SFRSYM    DATA     BIT       P31
      000000A0H.2 SFRSYM    DATA     BIT       P22
      00000090H.3 SFRSYM    DATA     BIT       P13
      00000080H.4 SFRSYM    DATA     BIT       P04
      00000098H   SFRSYM    DATA     BYTE      SCON
      000000D8H   SFRSYM    DATA     BIT       P50
      000000C0H.1 SFRSYM    DATA     BIT       P41
      000000B0H.2 SFRSYM    DATA     BIT       P32
      000000A0H.3 SFRSYM    DATA     BIT       P23
      00000090H.4 SFRSYM    DATA     BIT       P14
      00000080H.5 SFRSYM    DATA     BIT       P05
      000000F5H   SFRSYM    DATA     BYTE      IAPDAT
      00000088H   SFRSYM    DATA     BYTE      TCON
      00000089H   SFRSYM    DATA     BYTE      TMOD
LX51 LINKER/LOCATER V4.66.66.0                                                        09/07/2020  22:21:36  PAGE 51


      000000D8H.1 SFRSYM    DATA     BIT       P51
      000000C0H.2 SFRSYM    DATA     BIT       P42
      000000B0H.3 SFRSYM    DATA     BIT       P33
      000000A0H.4 SFRSYM    DATA     BIT       P24
      00000090H.5 SFRSYM    DATA     BIT       P15
      00000080H.6 SFRSYM    DATA     BIT       P06
      000000B8H   SFRSYM    DATA     BIT       IPINT0
      000000D8H.2 SFRSYM    DATA     BIT       P52
      000000C0H.3 SFRSYM    DATA     BIT       P43
      000000B0H.4 SFRSYM    DATA     BIT       P34
      000000A0H.5 SFRSYM    DATA     BIT       P25
      00000090H.6 SFRSYM    DATA     BIT       P16
      00000080H.7 SFRSYM    DATA     BIT       P07
      000000B8H.2 SFRSYM    DATA     BIT       IPINT1
      000000D8H.3 SFRSYM    DATA     BIT       P53
      000000C0H.4 SFRSYM    DATA     BIT       P44
      000000B0H.5 SFRSYM    DATA     BIT       P35
      000000A0H.6 SFRSYM    DATA     BIT       P26
      00000090H.7 SFRSYM    DATA     BIT       P17
      000000FDH   SFRSYM    DATA     BYTE      CRCREG
      000000D8H.4 SFRSYM    DATA     BIT       P54
      000000C0H.5 SFRSYM    DATA     BIT       P45
      000000B0H.6 SFRSYM    DATA     BIT       P36
      000000A0H.7 SFRSYM    DATA     BIT       P27
      000000D8H.5 SFRSYM    DATA     BIT       P55
      000000C0H.6 SFRSYM    DATA     BIT       P46
      000000B0H.7 SFRSYM    DATA     BIT       P37
      000000C0H.7 SFRSYM    DATA     BIT       P47
      000000C8H.6 SFRSYM    DATA     BIT       EXFX
      00000093H   SFRSYM    DATA     BYTE      DDRCON
      000000F6H   SFRSYM    DATA     BYTE      IAPCTL
      000000A9H   SFRSYM    DATA     BYTE      IE1
      000000AAH   SFRSYM    DATA     BYTE      IE2
      000000F0H   SFRSYM    DATA     BYTE      B
      000000B7H   SFRSYM    DATA     BYTE      CMPCON
      000000F1H   SFRSYM    DATA     BYTE      IAPKEY
      000000FBH   SFRSYM    DATA     BYTE      BTMCON
      000000D4H   SFRSYM    DATA     BYTE      PWMCFG
      000000E0H   SFRSYM    DATA     BYTE      ACC
      000000CBH   SFRSYM    DATA     BYTE      RCAPXH
      000000A8H.1 SFRSYM    DATA     BIT       ET0
      000000FCH   SFRSYM    DATA     BYTE      CRCINX
      00000088H.5 SFRSYM    DATA     BIT       TF0
      000000A8H.3 SFRSYM    DATA     BIT       ET1
      000000ABH   SFRSYM    DATA     BYTE      ADCCFG0
      000000B9H   SFRSYM    DATA     BYTE      IP1
      00000088H.7 SFRSYM    DATA     BIT       TF1
      000000A8H.5 SFRSYM    DATA     BIT       ET2
      000000ACH   SFRSYM    DATA     BYTE      ADCCFG1
      000000BAH   SFRSYM    DATA     BYTE      IP2
      00000098H.2 SFRSYM    DATA     BIT       RB8
      000000B5H   SFRSYM    DATA     BYTE      ADCCFG2
      000000CAH   SFRSYM    DATA     BYTE      RCAPXL
      0000008CH   SFRSYM    DATA     BYTE      TH0
      0000008DH   SFRSYM    DATA     BYTE      TH1
      00000098H.3 SFRSYM    DATA     BIT       TB8
      000000D0H   SFRSYM    DATA     BIT       P
      00000098H.7 SFRSYM    DATA     BIT       SM0
      0000008AH   SFRSYM    DATA     BYTE      TL0
      00000098H.6 SFRSYM    DATA     BIT       SM1
      000000CFH   SFRSYM    DATA     BYTE      WDTCON
      0000008BH   SFRSYM    DATA     BYTE      TL1
      00000098H.5 SFRSYM    DATA     BIT       SM2
      000000D5H   SFRSYM    DATA     BYTE      PWMDFR
      000000D0H.3 SFRSYM    DATA     BIT       RS0
LX51 LINKER/LOCATER V4.66.66.0                                                        09/07/2020  22:21:36  PAGE 52


      00000088H.4 SFRSYM    DATA     BIT       TR0
      000000D0H.4 SFRSYM    DATA     BIT       RS1
      000000D3H   SFRSYM    DATA     BYTE      PWMCON
      000000D7H   SFRSYM    DATA     BYTE      PWMMOD
      00000088H.6 SFRSYM    DATA     BIT       TR1
      000000B8H.4 SFRSYM    DATA     BIT       IPUART
      000000D6H   SFRSYM    DATA     BYTE      PWMFLT
      00000083H   SFRSYM    DATA     BYTE      DPH
      00000082H   SFRSYM    DATA     BYTE      DPL
      000000A8H   SFRSYM    DATA     BIT       EINT0
      0000009AH   SFRSYM    DATA     BYTE      P0CON
      000000A8H.2 SFRSYM    DATA     BIT       EINT1
      000000B8H.6 SFRSYM    DATA     BIT       IPADC
      000000B4H   SFRSYM    DATA     BYTE      INT0F
      00000091H   SFRSYM    DATA     BYTE      P1CON
      000000BCH   SFRSYM    DATA     BYTE      INT1F
      000000A1H   SFRSYM    DATA     BYTE      P2CON
      000000BEH   SFRSYM    DATA     BYTE      INT2F
      000000B1H   SFRSYM    DATA     BYTE      P3CON
      00000098H.4 SFRSYM    DATA     BIT       REN
      000000C1H   SFRSYM    DATA     BYTE      P4CON
      000000D9H   SFRSYM    DATA     BYTE      P5CON
      000000AFH   SFRSYM    DATA     BYTE      ADCVH
      00000086H   SFRSYM    DATA     BYTE      DPS
      00000095H   SFRSYM    DATA     BYTE      US0CON0
      000000F7H   SFRSYM    DATA     BYTE      EXADH
      000000A4H   SFRSYM    DATA     BYTE      US1CON0
      0000009DH   SFRSYM    DATA     BYTE      US0CON1
      000000AEH   SFRSYM    DATA     BYTE      ADCVL
      000000C4H   SFRSYM    DATA     BYTE      US2CON0
      000000A5H   SFRSYM    DATA     BYTE      US1CON1
      0000009EH   SFRSYM    DATA     BYTE      US0CON2
      000000C5H   SFRSYM    DATA     BYTE      US2CON1
      000000A6H   SFRSYM    DATA     BYTE      US1CON2
      0000009FH   SFRSYM    DATA     BYTE      US0CON3
      000000C6H   SFRSYM    DATA     BYTE      US2CON2
      000000A7H   SFRSYM    DATA     BYTE      US1CON3
      000000BBH   SFRSYM    DATA     BYTE      INT0R
      000000C7H   SFRSYM    DATA     BYTE      US2CON3
      000000BDH   SFRSYM    DATA     BYTE      INT1R
      000000BFH   SFRSYM    DATA     BYTE      INT2R
      000000C8H.7 SFRSYM    DATA     BIT       TFX
      00000096H   SFRSYM    DATA     BYTE      IOHCON0
      00000097H   SFRSYM    DATA     BYTE      IOHCON1
      000000CDH   SFRSYM    DATA     BYTE      THX
      000000D0H.5 SFRSYM    DATA     BIT       F0
      000000D0H.1 SFRSYM    DATA     BIT       F1
      000000CCH   SFRSYM    DATA     BYTE      TLX
      000000D0H   SFRSYM    DATA     BYTE      PSW

      0100099FH   BLOCK     CODE     ---       LVL=0
      0100099FH   BLOCK     CODE     NEAR LAB  LVL=1
      0000005FH   SYMBOL    DATA     WORD      moment_num
      ---         BLOCKEND  ---      ---       LVL=1
      0100099FH   LINE      CODE     ---       #30
      0100099FH   LINE      CODE     ---       #31
      0100099FH   LINE      CODE     ---       #36
      010009A2H   LINE      CODE     ---       #37
      010009A2H   LINE      CODE     ---       #38
      010009A4H   LINE      CODE     ---       #39
      010009A7H   LINE      CODE     ---       #40
      010009A9H   LINE      CODE     ---       #43
      010009ABH   LINE      CODE     ---       #44
      010009ADH   LINE      CODE     ---       #46
      010009AFH   LINE      CODE     ---       #47
LX51 LINKER/LOCATER V4.66.66.0                                                        09/07/2020  22:21:36  PAGE 53


      010009AFH   LINE      CODE     ---       #49
      010009B6H   LINE      CODE     ---       #50
      010009B6H   LINE      CODE     ---       #51
      010009BDH   LINE      CODE     ---       #52
      010009C2H   LINE      CODE     ---       #53
      010009C2H   LINE      CODE     ---       #54
      010009C9H   LINE      CODE     ---       #55
      010009C9H   LINE      CODE     ---       #57
      010009D5H   LINE      CODE     ---       #58
      010009D5H   LINE      CODE     ---       #60
      010009DBH   LINE      CODE     ---       #61
      010009DEH   LINE      CODE     ---       #62
      010009E0H   LINE      CODE     ---       #64
      010009E0H   LINE      CODE     ---       #65
      010009E2H   LINE      CODE     ---       #67
      010009E2H   LINE      CODE     ---       #69
      010009E2H   LINE      CODE     ---       #71
      010009ECH   LINE      CODE     ---       #73
      010009ECH   LINE      CODE     ---       #75
      010009F7H   LINE      CODE     ---       #76
      010009F7H   LINE      CODE     ---       #77
      01000A25H   LINE      CODE     ---       #80
      01000A27H   LINE      CODE     ---       #81
      01000A29H   LINE      CODE     ---       #83
      01000A2BH   LINE      CODE     ---       #85
      01000A36H   LINE      CODE     ---       #86
      01000A36H   LINE      CODE     ---       #88
      01000A71H   LINE      CODE     ---       #89
      01000A71H   LINE      CODE     ---       #90
      01000A84H   LINE      CODE     ---       #91
      01000A84H   LINE      CODE     ---       #92
      01000A84H   LINE      CODE     ---       #93
      01000A84H   LINE      CODE     ---       #94
      01000A8FH   LINE      CODE     ---       #95
      01000A8FH   LINE      CODE     ---       #96
      01000AC9H   LINE      CODE     ---       #97
      01000AC9H   LINE      CODE     ---       #100
      01000ACFH   LINE      CODE     ---       #102
      01000AD1H   LINE      CODE     ---       #103
      01000AD3H   LINE      CODE     ---       #105
      01000AD5H   LINE      CODE     ---       #106
      01000AD7H   LINE      CODE     ---       #108
      01000ADAH   LINE      CODE     ---       #109
      01000ADCH   LINE      CODE     ---       #111
      01000AE0H   LINE      CODE     ---       #112
      01000AE0H   LINE      CODE     ---       #114
      ---         BLOCKEND  ---      ---       LVL=0

      ---         MODULE    ---      ---       OPERATION
      00000022H.2 PUBLIC    BIT      BIT       set_over_flag
      00000022H.1 PUBLIC    BIT      BIT       set_start_flag
      0000003AH   PUBLIC    DATA     ---       now
      00000022H.0 PUBLIC    BIT      BIT       menu_temp_flag
      00000021H.7 PUBLIC    BIT      BIT       menu_wind_flag
      00000035H   PUBLIC    DATA     WORD      set_temper
      00000021H.6 PUBLIC    BIT      BIT       blink_stop_flag
      00000021H.5 PUBLIC    BIT      BIT       menu_clock_flag
      00000032H   PUBLIC    DATA     BYTE      menu_grade
      00000021H.4 PUBLIC    BIT      BIT       menu_hotcool_flag
      00000021H.3 PUBLIC    BIT      BIT       menu_holiday_flag
      0100185AH   PUBLIC    CODE     ---       FCtemper_part
      01001859H   PUBLIC    CODE     ---       copy_part
      010013E8H   PUBLIC    CODE     ---       time6_part
      01000858H   PUBLIC    CODE     ---       menu_bar
      01000556H   PUBLIC    CODE     ---       clock_part
LX51 LINKER/LOCATER V4.66.66.0                                                        09/07/2020  22:21:36  PAGE 54


      0100183EH   PUBLIC    CODE     ---       holiday_part
      010017CFH   PUBLIC    CODE     ---       wind_part
      0100176EH   PUBLIC    CODE     ---       hotcool_part
      01000E69H   PUBLIC    CODE     ---       main_part
      01000BEEH   PUBLIC    CODE     ---       MainFuction
      000000C8H.2 SFRSYM    DATA     BIT       TRX
      000000FFH   SFRSYM    DATA     BYTE      OPREG
      00000080H   SFRSYM    DATA     BYTE      P0
      00000090H   SFRSYM    DATA     BYTE      P1
      000000A0H   SFRSYM    DATA     BYTE      P2
      000000A8H.4 SFRSYM    DATA     BIT       EUART
      0000008EH   SFRSYM    DATA     BYTE      TMCON
      000000B0H   SFRSYM    DATA     BYTE      P3
      000000D0H.6 SFRSYM    DATA     BIT       AC
      000000C0H   SFRSYM    DATA     BYTE      P4
      0000008FH   SFRSYM    DATA     BYTE      OTCON
      000000D8H   SFRSYM    DATA     BYTE      P5
      000000A8H.7 SFRSYM    DATA     BIT       EA
      000000C8H.5 SFRSYM    DATA     BIT       RCLKX
      000000C8H.4 SFRSYM    DATA     BIT       TCLKX
      000000C8H.3 SFRSYM    DATA     BIT       EXENX
      000000A8H.6 SFRSYM    DATA     BIT       EADC
      000000C9H   SFRSYM    DATA     BYTE      TXMOD
      000000C8H   SFRSYM    DATA     BYTE      TXCON
      000000A8H   SFRSYM    DATA     BYTE      IE
      00000085H   SFRSYM    DATA     BYTE      DPH1
      000000E9H   SFRSYM    DATA     BYTE      EXA0
      000000EAH   SFRSYM    DATA     BYTE      EXA1
      000000FEH   SFRSYM    DATA     BYTE      OPINX
      000000EBH   SFRSYM    DATA     BYTE      EXA2
      000000ECH   SFRSYM    DATA     BYTE      EXA3
      00000084H   SFRSYM    DATA     BYTE      DPL1
      000000C8H   SFRSYM    DATA     BIT       CP
      000000EFH   SFRSYM    DATA     BYTE      OPERCON
      0000009BH   SFRSYM    DATA     BYTE      P0PH
      000000B8H   SFRSYM    DATA     BYTE      IP
      00000092H   SFRSYM    DATA     BYTE      P1PH
      00000098H   SFRSYM    DATA     BIT       RI
      000000A2H   SFRSYM    DATA     BYTE      P2PH
      000000D0H.7 SFRSYM    DATA     BIT       CY
      000000B2H   SFRSYM    DATA     BYTE      P3PH
      00000098H.1 SFRSYM    DATA     BIT       TI
      000000CEH   SFRSYM    DATA     BYTE      TXINX
      000000C2H   SFRSYM    DATA     BYTE      P4PH
      000000B8H.1 SFRSYM    DATA     BIT       IPT0
      000000DAH   SFRSYM    DATA     BYTE      P5PH
      000000B8H.3 SFRSYM    DATA     BIT       IPT1
      000000B8H.5 SFRSYM    DATA     BIT       IPT2
      00000081H   SFRSYM    DATA     BYTE      SP
      000000D0H.2 SFRSYM    DATA     BIT       OV
      000000F4H   SFRSYM    DATA     BYTE      IAPADE
      0000009CH   SFRSYM    DATA     BYTE      P0VO
      00000094H   SFRSYM    DATA     BYTE      P1VO
      000000EEH   SFRSYM    DATA     BYTE      EXBH
      000000A3H   SFRSYM    DATA     BYTE      P2VO
      000000F3H   SFRSYM    DATA     BYTE      IAPADH
      000000B3H   SFRSYM    DATA     BYTE      P3VO
      000000ADH   SFRSYM    DATA     BYTE      ADCCON
      000000C8H.1 SFRSYM    DATA     BIT       TX
      000000EDH   SFRSYM    DATA     BYTE      EXBL
      000000F2H   SFRSYM    DATA     BYTE      IAPADL
      00000080H.6 SFRSYM    DATA     BIT       NST1001_DQ
      00000080H   SFRSYM    DATA     BIT       P00
      00000090H   SFRSYM    DATA     BIT       P10
      00000080H.1 SFRSYM    DATA     BIT       P01
LX51 LINKER/LOCATER V4.66.66.0                                                        09/07/2020  22:21:36  PAGE 55


      00000099H   SFRSYM    DATA     BYTE      SBUF
      00000087H   SFRSYM    DATA     BYTE      PCON
      000000D8H.3 SFRSYM    DATA     BIT       NST1001_IO
      000000A0H   SFRSYM    DATA     BIT       P20
      00000090H.1 SFRSYM    DATA     BIT       P11
      00000080H.2 SFRSYM    DATA     BIT       P02
      000000B6H   SFRSYM    DATA     BYTE      CMPCFG
      000000B0H   SFRSYM    DATA     BIT       P30
      000000A0H.1 SFRSYM    DATA     BIT       P21
      00000090H.2 SFRSYM    DATA     BIT       P12
      00000080H.3 SFRSYM    DATA     BIT       P03
      000000C0H   SFRSYM    DATA     BIT       P40
      000000B0H.1 SFRSYM    DATA     BIT       P31
      000000A0H.2 SFRSYM    DATA     BIT       P22
      00000090H.3 SFRSYM    DATA     BIT       P13
      00000080H.4 SFRSYM    DATA     BIT       P04
      00000098H   SFRSYM    DATA     BYTE      SCON
      000000D8H   SFRSYM    DATA     BIT       P50
      000000C0H.1 SFRSYM    DATA     BIT       P41
      000000B0H.2 SFRSYM    DATA     BIT       P32
      000000A0H.3 SFRSYM    DATA     BIT       P23
      00000090H.4 SFRSYM    DATA     BIT       P14
      00000080H.5 SFRSYM    DATA     BIT       P05
      000000F5H   SFRSYM    DATA     BYTE      IAPDAT
      00000088H   SFRSYM    DATA     BYTE      TCON
      00000089H   SFRSYM    DATA     BYTE      TMOD
      000000D8H.1 SFRSYM    DATA     BIT       P51
      000000C0H.2 SFRSYM    DATA     BIT       P42
      000000B0H.3 SFRSYM    DATA     BIT       P33
      000000A0H.4 SFRSYM    DATA     BIT       P24
      00000090H.5 SFRSYM    DATA     BIT       P15
      00000080H.6 SFRSYM    DATA     BIT       P06
      000000B8H   SFRSYM    DATA     BIT       IPINT0
      000000D8H.2 SFRSYM    DATA     BIT       P52
      000000C0H.3 SFRSYM    DATA     BIT       P43
      000000B0H.4 SFRSYM    DATA     BIT       P34
      000000A0H.5 SFRSYM    DATA     BIT       P25
      00000090H.6 SFRSYM    DATA     BIT       P16
      00000080H.7 SFRSYM    DATA     BIT       P07
      000000B8H.2 SFRSYM    DATA     BIT       IPINT1
      000000D8H.3 SFRSYM    DATA     BIT       P53
      000000C0H.4 SFRSYM    DATA     BIT       P44
      000000B0H.5 SFRSYM    DATA     BIT       P35
      000000A0H.6 SFRSYM    DATA     BIT       P26
      00000090H.7 SFRSYM    DATA     BIT       P17
      000000FDH   SFRSYM    DATA     BYTE      CRCREG
      000000D8H.4 SFRSYM    DATA     BIT       P54
      000000C0H.5 SFRSYM    DATA     BIT       P45
      000000B0H.6 SFRSYM    DATA     BIT       P36
      000000A0H.7 SFRSYM    DATA     BIT       P27
      000000D8H.5 SFRSYM    DATA     BIT       P55
      000000C0H.6 SFRSYM    DATA     BIT       P46
      000000B0H.7 SFRSYM    DATA     BIT       P37
      000000C0H.7 SFRSYM    DATA     BIT       P47
      000000C8H.6 SFRSYM    DATA     BIT       EXFX
      00000093H   SFRSYM    DATA     BYTE      DDRCON
      000000F6H   SFRSYM    DATA     BYTE      IAPCTL
      000000A9H   SFRSYM    DATA     BYTE      IE1
      000000AAH   SFRSYM    DATA     BYTE      IE2
      000000F0H   SFRSYM    DATA     BYTE      B
      000000B7H   SFRSYM    DATA     BYTE      CMPCON
      000000F1H   SFRSYM    DATA     BYTE      IAPKEY
      000000FBH   SFRSYM    DATA     BYTE      BTMCON
      000000D4H   SFRSYM    DATA     BYTE      PWMCFG
      000000E0H   SFRSYM    DATA     BYTE      ACC
LX51 LINKER/LOCATER V4.66.66.0                                                        09/07/2020  22:21:36  PAGE 56


      000000CBH   SFRSYM    DATA     BYTE      RCAPXH
      000000A8H.1 SFRSYM    DATA     BIT       ET0
      000000FCH   SFRSYM    DATA     BYTE      CRCINX
      00000088H.5 SFRSYM    DATA     BIT       TF0
      000000A8H.3 SFRSYM    DATA     BIT       ET1
      000000ABH   SFRSYM    DATA     BYTE      ADCCFG0
      000000B9H   SFRSYM    DATA     BYTE      IP1
      00000088H.7 SFRSYM    DATA     BIT       TF1
      000000A8H.5 SFRSYM    DATA     BIT       ET2
      000000ACH   SFRSYM    DATA     BYTE      ADCCFG1
      000000BAH   SFRSYM    DATA     BYTE      IP2
      00000098H.2 SFRSYM    DATA     BIT       RB8
      000000B5H   SFRSYM    DATA     BYTE      ADCCFG2
      000000CAH   SFRSYM    DATA     BYTE      RCAPXL
      0000008CH   SFRSYM    DATA     BYTE      TH0
      0000008DH   SFRSYM    DATA     BYTE      TH1
      00000098H.3 SFRSYM    DATA     BIT       TB8
      000000D0H   SFRSYM    DATA     BIT       P
      00000098H.7 SFRSYM    DATA     BIT       SM0
      0000008AH   SFRSYM    DATA     BYTE      TL0
      00000098H.6 SFRSYM    DATA     BIT       SM1
      000000CFH   SFRSYM    DATA     BYTE      WDTCON
      0000008BH   SFRSYM    DATA     BYTE      TL1
      00000098H.5 SFRSYM    DATA     BIT       SM2
      000000D5H   SFRSYM    DATA     BYTE      PWMDFR
      000000D0H.3 SFRSYM    DATA     BIT       RS0
      00000088H.4 SFRSYM    DATA     BIT       TR0
      000000D0H.4 SFRSYM    DATA     BIT       RS1
      000000D3H   SFRSYM    DATA     BYTE      PWMCON
      000000D7H   SFRSYM    DATA     BYTE      PWMMOD
      00000088H.6 SFRSYM    DATA     BIT       TR1
      000000B8H.4 SFRSYM    DATA     BIT       IPUART
      000000D6H   SFRSYM    DATA     BYTE      PWMFLT
      00000083H   SFRSYM    DATA     BYTE      DPH
      00000082H   SFRSYM    DATA     BYTE      DPL
      000000A8H   SFRSYM    DATA     BIT       EINT0
      0000009AH   SFRSYM    DATA     BYTE      P0CON
      000000A8H.2 SFRSYM    DATA     BIT       EINT1
      000000B8H.6 SFRSYM    DATA     BIT       IPADC
      000000B4H   SFRSYM    DATA     BYTE      INT0F
      00000091H   SFRSYM    DATA     BYTE      P1CON
      000000BCH   SFRSYM    DATA     BYTE      INT1F
      000000A1H   SFRSYM    DATA     BYTE      P2CON
      000000BEH   SFRSYM    DATA     BYTE      INT2F
      000000B1H   SFRSYM    DATA     BYTE      P3CON
      00000098H.4 SFRSYM    DATA     BIT       REN
      000000C1H   SFRSYM    DATA     BYTE      P4CON
      000000D9H   SFRSYM    DATA     BYTE      P5CON
      000000AFH   SFRSYM    DATA     BYTE      ADCVH
      00000086H   SFRSYM    DATA     BYTE      DPS
      00000095H   SFRSYM    DATA     BYTE      US0CON0
      000000F7H   SFRSYM    DATA     BYTE      EXADH
      000000A4H   SFRSYM    DATA     BYTE      US1CON0
      0000009DH   SFRSYM    DATA     BYTE      US0CON1
      000000AEH   SFRSYM    DATA     BYTE      ADCVL
      000000C4H   SFRSYM    DATA     BYTE      US2CON0
      000000A5H   SFRSYM    DATA     BYTE      US1CON1
      0000009EH   SFRSYM    DATA     BYTE      US0CON2
      000000C5H   SFRSYM    DATA     BYTE      US2CON1
      000000A6H   SFRSYM    DATA     BYTE      US1CON2
      0000009FH   SFRSYM    DATA     BYTE      US0CON3
      000000C6H   SFRSYM    DATA     BYTE      US2CON2
      000000A7H   SFRSYM    DATA     BYTE      US1CON3
      000000BBH   SFRSYM    DATA     BYTE      INT0R
      000000C7H   SFRSYM    DATA     BYTE      US2CON3
LX51 LINKER/LOCATER V4.66.66.0                                                        09/07/2020  22:21:36  PAGE 57


      000000BDH   SFRSYM    DATA     BYTE      INT1R
      000000BFH   SFRSYM    DATA     BYTE      INT2R
      000000C8H.7 SFRSYM    DATA     BIT       TFX
      00000096H   SFRSYM    DATA     BYTE      IOHCON0
      00000097H   SFRSYM    DATA     BYTE      IOHCON1
      000000CDH   SFRSYM    DATA     BYTE      THX
      000000D0H.5 SFRSYM    DATA     BIT       F0
      000000D0H.1 SFRSYM    DATA     BIT       F1
      000000CCH   SFRSYM    DATA     BYTE      TLX
      000000D0H   SFRSYM    DATA     BYTE      PSW
      0000002EH   SYMBOL    DATA     CHAR      EC11_A_Last
      0000002FH   SYMBOL    DATA     CHAR      EC11_B_Last
      00000030H   SYMBOL    DATA     CHAR      FLAG_EC11_KEY_LongClick
      00000031H   SYMBOL    DATA     CHAR      FLAG_EC11_KEY_ShotClick
      00000033H   SYMBOL    DATA     INT       EC11_KEY_COUNT
      00000037H   SYMBOL    DATA     BYTE      EC11_NUM_SW
      00000038H   SYMBOL    DATA     INT       EC11_KEY_DoubleClick_Count
      00000043H   SYMBOL    DATA     CHAR      FLAG_EC11_KEY_DoubleClick
      00000044H   SYMBOL    DATA     CHAR      EC11_Type

      01000BEEH   BLOCK     CODE     ---       LVL=0
      01000BEEH   LINE      CODE     ---       #64
      01000BEEH   LINE      CODE     ---       #65
      01000BEEH   LINE      CODE     ---       #68
      01000BF8H   LINE      CODE     ---       #69
      01000BF8H   LINE      CODE     ---       #70
      01000BFAH   LINE      CODE     ---       #71
      01000BFCH   LINE      CODE     ---       #72
      01000BFEH   LINE      CODE     ---       #74
      01000BFEH   LINE      CODE     ---       #77
      01000C08H   LINE      CODE     ---       #78
      01000C08H   LINE      CODE     ---       #80
      01000C0AH   LINE      CODE     ---       #81
      01000C0CH   LINE      CODE     ---       #82
      01000C0EH   LINE      CODE     ---       #84
      01000C0EH   LINE      CODE     ---       #87
      01000C18H   LINE      CODE     ---       #88
      01000C18H   LINE      CODE     ---       #90
      01000C1AH   LINE      CODE     ---       #91
      01000C1CH   LINE      CODE     ---       #92
      01000C1EH   LINE      CODE     ---       #94
      01000C1EH   LINE      CODE     ---       #97
      01000C28H   LINE      CODE     ---       #98
      01000C28H   LINE      CODE     ---       #100
      01000C2AH   LINE      CODE     ---       #101
      01000C2CH   LINE      CODE     ---       #102
      01000C2EH   LINE      CODE     ---       #104
      01000C2EH   LINE      CODE     ---       #107
      01000C38H   LINE      CODE     ---       #108
      01000C38H   LINE      CODE     ---       #109
      01000C3AH   LINE      CODE     ---       #110
      01000C3EH   LINE      CODE     ---       #111
      01000C40H   LINE      CODE     ---       #112
      01000C48H   LINE      CODE     ---       #114
      01000C48H   LINE      CODE     ---       #117
      01000C52H   LINE      CODE     ---       #118
      01000C52H   LINE      CODE     ---       #119
      01000C54H   LINE      CODE     ---       #120
      01000C58H   LINE      CODE     ---       #121
      01000C5AH   LINE      CODE     ---       #122
      01000C62H   LINE      CODE     ---       #124
      01000C62H   LINE      CODE     ---       #127
      01000C6CH   LINE      CODE     ---       #128
      01000C6CH   LINE      CODE     ---       #129
      01000C6EH   LINE      CODE     ---       #130
LX51 LINKER/LOCATER V4.66.66.0                                                        09/07/2020  22:21:36  PAGE 58


      01000C71H   LINE      CODE     ---       #131
      01000C73H   LINE      CODE     ---       #132
      01000C73H   LINE      CODE     ---       #141
      01000C77H   LINE      CODE     ---       #142
      01000C77H   LINE      CODE     ---       #144
      01000C7AH   LINE      CODE     ---       #145
      01000C7AH   LINE      CODE     ---       #147
      01000C81H   LINE      CODE     ---       #148
      01000C81H   LINE      CODE     ---       #150
      01000C84H   LINE      CODE     ---       #151
      01000C84H   LINE      CODE     ---       #153
      01000C8EH   LINE      CODE     ---       #154
      01000C8EH   LINE      CODE     ---       #156
      01000C91H   LINE      CODE     ---       #157
      01000C91H   LINE      CODE     ---       #159
      01000C9BH   LINE      CODE     ---       #160
      01000C9BH   LINE      CODE     ---       #162
      01000C9EH   LINE      CODE     ---       #163
      01000C9EH   LINE      CODE     ---       #165
      01000CA8H   LINE      CODE     ---       #166
      01000CA8H   LINE      CODE     ---       #168
      01000CABH   LINE      CODE     ---       #169
      01000CABH   LINE      CODE     ---       #172
      01000CB0H   LINE      CODE     ---       #173
      01000CB0H   LINE      CODE     ---       #175
      01000CB3H   LINE      CODE     ---       #176
      01000CB3H   LINE      CODE     ---       #177
      01000CB8H   LINE      CODE     ---       #178
      01000CB8H   LINE      CODE     ---       #180
      01000CBBH   LINE      CODE     ---       #181
      01000CBBH   LINE      CODE     ---       #182
      01000CC0H   LINE      CODE     ---       #183
      01000CC0H   LINE      CODE     ---       #185
      01000CC3H   LINE      CODE     ---       #186
      01000CC3H   LINE      CODE     ---       #187
      01000CC8H   LINE      CODE     ---       #188
      01000CC8H   LINE      CODE     ---       #190
      01000CCBH   LINE      CODE     ---       #191
      01000CCBH   LINE      CODE     ---       #193
      ---         BLOCKEND  ---      ---       LVL=0

      01000E69H   BLOCK     CODE     ---       LVL=0
      01000E69H   BLOCK     CODE     NEAR LAB  LVL=1
      00000020H.0 SYMBOL    BIT      BIT       time_sign_blink
      00000020H.1 SYMBOL    BIT      BIT       wind_sign_blink
      ---         BLOCKEND  ---      ---       LVL=1
      01000E69H   LINE      CODE     ---       #203
      01000E69H   LINE      CODE     ---       #204
      01000E69H   LINE      CODE     ---       #210
      01000E6CH   LINE      CODE     ---       #211
      01000E6CH   LINE      CODE     ---       #212
      01000E6EH   LINE      CODE     ---       #213
      01000E71H   LINE      CODE     ---       #214
      01000E71H   LINE      CODE     ---       #216
      01000E74H   LINE      CODE     ---       #217
      01000E74H   LINE      CODE     ---       #218
      01000E77H   LINE      CODE     ---       #219
      01000E77H   LINE      CODE     ---       #222
      01000E7AH   LINE      CODE     ---       #223
      01000E7AH   LINE      CODE     ---       #224
      01000E7CH   LINE      CODE     ---       #226
      01000E81H   LINE      CODE     ---       #227
      01000E86H   LINE      CODE     ---       #228
      01000E8BH   LINE      CODE     ---       #231
      01000E8EH   LINE      CODE     ---       #232
LX51 LINKER/LOCATER V4.66.66.0                                                        09/07/2020  22:21:36  PAGE 59


      01000E8EH   LINE      CODE     ---       #234
      01000E9DH   LINE      CODE     ---       #235
      01000EA9H   LINE      CODE     ---       #236
      01000EA9H   LINE      CODE     ---       #238
      01000EACH   LINE      CODE     ---       #239
      01000EB1H   LINE      CODE     ---       #242
      01000EB7H   LINE      CODE     ---       #243
      01000EBCH   LINE      CODE     ---       #246
      01000EBFH   LINE      CODE     ---       #247
      01000EBFH   LINE      CODE     ---       #248
      01000EC2H   LINE      CODE     ---       #249
      01000EC2H   LINE      CODE     ---       #250
      01000EC8H   LINE      CODE     ---       #251
      01000ECFH   LINE      CODE     ---       #252
      01000ED1H   LINE      CODE     ---       #254
      01000ED1H   LINE      CODE     ---       #255
      01000ED8H   LINE      CODE     ---       #256
      01000EDBH   LINE      CODE     ---       #257
      01000EDBH   LINE      CODE     ---       #258
      01000EE0H   LINE      CODE     ---       #259
      01000EE0H   LINE      CODE     ---       #262
      01000EE4H   LINE      CODE     ---       #263
      01000EEAH   LINE      CODE     ---       #265
      01000EF3H   LINE      CODE     ---       #266
      01000EF3H   LINE      CODE     ---       #268
      01000EF6H   LINE      CODE     ---       #269
      01000EF6H   LINE      CODE     ---       #270
      01000EF8H   LINE      CODE     ---       #271
      01000EFBH   LINE      CODE     ---       #272
      01000EFDH   LINE      CODE     ---       #273
      01000F01H   LINE      CODE     ---       #274
      01000F03H   LINE      CODE     ---       #275
      01000F03H   LINE      CODE     ---       #279
      01000F06H   LINE      CODE     ---       #280
      01000F06H   LINE      CODE     ---       #281
      01000F0CH   LINE      CODE     ---       #282
      01000F13H   LINE      CODE     ---       #283
      01000F18H   LINE      CODE     ---       #285
      01000F18H   LINE      CODE     ---       #286
      01000F23H   LINE      CODE     ---       #287
      01000F25H   LINE      CODE     ---       #288
      ---         BLOCKEND  ---      ---       LVL=0

      0100176EH   BLOCK     CODE     ---       LVL=0
      0100176EH   LINE      CODE     ---       #298
      0100176EH   LINE      CODE     ---       #299
      0100176EH   LINE      CODE     ---       #301
      01001770H   LINE      CODE     ---       #302
      01001777H   LINE      CODE     ---       #303
      0100177AH   LINE      CODE     ---       #304
      0100177CH   LINE      CODE     ---       #305
      ---         BLOCKEND  ---      ---       LVL=0

      010017CFH   BLOCK     CODE     ---       LVL=0
      010017CFH   LINE      CODE     ---       #315
      010017CFH   LINE      CODE     ---       #316
      010017CFH   LINE      CODE     ---       #319
      010017D1H   LINE      CODE     ---       #321
      010017D6H   LINE      CODE     ---       #322
      010017D9H   LINE      CODE     ---       #323
      010017DBH   LINE      CODE     ---       #324
      ---         BLOCKEND  ---      ---       LVL=0

      0100183EH   BLOCK     CODE     ---       LVL=0
      0100183EH   LINE      CODE     ---       #334
LX51 LINKER/LOCATER V4.66.66.0                                                        09/07/2020  22:21:36  PAGE 60


      0100183EH   LINE      CODE     ---       #335
      0100183EH   LINE      CODE     ---       #336
      01001841H   LINE      CODE     ---       #337
      01001843H   LINE      CODE     ---       #339
      ---         BLOCKEND  ---      ---       LVL=0

      01000556H   BLOCK     CODE     ---       LVL=0
      01000556H   BLOCK     CODE     NEAR LAB  LVL=1
      00000028H   SYMBOL    DATA     BYTE      clock_sect
      00000029H   SYMBOL    DATA     BYTE      set_hour
      0000002AH   SYMBOL    DATA     BYTE      set_min
      0000002BH   SYMBOL    DATA     BYTE      set_week
      00000020H.2 SYMBOL    BIT      BIT       hour_flag
      00000020H.3 SYMBOL    BIT      BIT       min_flag
      00000020H.4 SYMBOL    BIT      BIT       week_flag
      00000020H.5 SYMBOL    BIT      BIT       hour_blink_flag
      00000020H.6 SYMBOL    BIT      BIT       min_blink_flag
      00000020H.7 SYMBOL    BIT      BIT       week_blink_flag
      ---         BLOCKEND  ---      ---       LVL=1
      01000556H   LINE      CODE     ---       #349
      01000556H   LINE      CODE     ---       #350
      01000556H   LINE      CODE     ---       #364
      0100055FH   LINE      CODE     ---       #365
      0100055FH   LINE      CODE     ---       #366
      01000561H   LINE      CODE     ---       #367
      01000563H   LINE      CODE     ---       #368
      01000565H   LINE      CODE     ---       #369
      01000565H   LINE      CODE     ---       #370
      0100056BH   LINE      CODE     ---       #371
      0100056BH   LINE      CODE     ---       #372
      0100056DH   LINE      CODE     ---       #373
      0100056FH   LINE      CODE     ---       #374
      01000573H   LINE      CODE     ---       #375
      01000576H   LINE      CODE     ---       #376
      01000576H   LINE      CODE     ---       #378
      01000579H   LINE      CODE     ---       #379
      01000579H   LINE      CODE     ---       #380
      0100057BH   LINE      CODE     ---       #381
      0100057EH   LINE      CODE     ---       #382
      01000581H   LINE      CODE     ---       #383
      01000584H   LINE      CODE     ---       #384
      01000584H   LINE      CODE     ---       #386
      0100059DH   LINE      CODE     ---       #387
      0100059DH   LINE      CODE     ---       #388
      0100059DH   LINE      CODE     ---       #389
      0100059FH   LINE      CODE     ---       #390
      010005A1H   LINE      CODE     ---       #391
      010005A3H   LINE      CODE     ---       #393
      010005AAH   LINE      CODE     ---       #394
      010005AAH   LINE      CODE     ---       #395
      010005ACH   LINE      CODE     ---       #396
      010005AEH   LINE      CODE     ---       #397
      010005B2H   LINE      CODE     ---       #398
      010005B9H   LINE      CODE     ---       #399
      010005BCH   LINE      CODE     ---       #400
      010005BCH   LINE      CODE     ---       #401
      010005C9H   LINE      CODE     ---       #402
      010005C9H   LINE      CODE     ---       #403
      010005CBH   LINE      CODE     ---       #404
      010005CDH   LINE      CODE     ---       #405
      010005D1H   LINE      CODE     ---       #406
      010005D6H   LINE      CODE     ---       #407
      010005D9H   LINE      CODE     ---       #408
      010005D9H   LINE      CODE     ---       #410
      010005DBH   LINE      CODE     ---       #411
LX51 LINKER/LOCATER V4.66.66.0                                                        09/07/2020  22:21:36  PAGE 61


      010005DBH   LINE      CODE     ---       #412
      010005DDH   LINE      CODE     ---       #413
      010005DFH   LINE      CODE     ---       #414
      010005E1H   LINE      CODE     ---       #416
      010005E8H   LINE      CODE     ---       #417
      010005E8H   LINE      CODE     ---       #418
      010005EAH   LINE      CODE     ---       #419
      010005ECH   LINE      CODE     ---       #420
      010005F0H   LINE      CODE     ---       #421
      010005F7H   LINE      CODE     ---       #422
      010005FAH   LINE      CODE     ---       #423
      010005FAH   LINE      CODE     ---       #424
      01000601H   LINE      CODE     ---       #425
      01000601H   LINE      CODE     ---       #426
      01000603H   LINE      CODE     ---       #427
      01000605H   LINE      CODE     ---       #428
      01000609H   LINE      CODE     ---       #429
      0100060EH   LINE      CODE     ---       #430
      01000611H   LINE      CODE     ---       #431
      01000611H   LINE      CODE     ---       #433
      01000613H   LINE      CODE     ---       #434
      01000613H   LINE      CODE     ---       #435
      01000615H   LINE      CODE     ---       #436
      01000617H   LINE      CODE     ---       #437
      01000619H   LINE      CODE     ---       #439
      01000620H   LINE      CODE     ---       #440
      01000620H   LINE      CODE     ---       #441
      01000622H   LINE      CODE     ---       #442
      01000624H   LINE      CODE     ---       #443
      01000628H   LINE      CODE     ---       #444
      0100062FH   LINE      CODE     ---       #445
      01000632H   LINE      CODE     ---       #446
      01000632H   LINE      CODE     ---       #447
      01000639H   LINE      CODE     ---       #448
      01000639H   LINE      CODE     ---       #449
      0100063BH   LINE      CODE     ---       #450
      0100063DH   LINE      CODE     ---       #451
      01000641H   LINE      CODE     ---       #452
      01000646H   LINE      CODE     ---       #453
      01000649H   LINE      CODE     ---       #454
      01000649H   LINE      CODE     ---       #456
      0100064BH   LINE      CODE     ---       #457
      0100064BH   LINE      CODE     ---       #458
      0100064DH   LINE      CODE     ---       #460
      0100064DH   LINE      CODE     ---       #461
      0100064DH   LINE      CODE     ---       #463
      01000650H   LINE      CODE     ---       #464
      01000650H   LINE      CODE     ---       #465
      01000652H   LINE      CODE     ---       #466
      01000655H   LINE      CODE     ---       #467
      01000655H   LINE      CODE     ---       #468
      01000657H   LINE      CODE     ---       #469
      01000659H   LINE      CODE     ---       #470
      0100065BH   LINE      CODE     ---       #471
      0100065BH   LINE      CODE     ---       #472
      0100065EH   LINE      CODE     ---       #473
      0100065EH   LINE      CODE     ---       #474
      01000660H   LINE      CODE     ---       #475
      01000662H   LINE      CODE     ---       #476
      01000664H   LINE      CODE     ---       #477
      01000664H   LINE      CODE     ---       #478
      01000667H   LINE      CODE     ---       #479
      01000667H   LINE      CODE     ---       #480
      01000669H   LINE      CODE     ---       #481
      0100066BH   LINE      CODE     ---       #482
LX51 LINKER/LOCATER V4.66.66.0                                                        09/07/2020  22:21:36  PAGE 62


      0100066DH   LINE      CODE     ---       #483
      0100066DH   LINE      CODE     ---       #484
      0100066DH   LINE      CODE     ---       #486
      01000678H   LINE      CODE     ---       #487
      01000686H   LINE      CODE     ---       #489
      01000695H   LINE      CODE     ---       #491
      0100069EH   LINE      CODE     ---       #493
      010006A9H   LINE      CODE     ---       #494
      010006AFH   LINE      CODE     ---       #497
      010006B2H   LINE      CODE     ---       #498
      010006B2H   LINE      CODE     ---       #499
      010006B5H   LINE      CODE     ---       #501
      010006CAH   LINE      CODE     ---       #502
      010006DFH   LINE      CODE     ---       #504
      010006E6H   LINE      CODE     ---       #505
      010006EDH   LINE      CODE     ---       #507
      010006EFH   LINE      CODE     ---       #508
      010006F1H   LINE      CODE     ---       #509
      010006F4H   LINE      CODE     ---       #510
      010006F4H   LINE      CODE     ---       #512
      ---         BLOCKEND  ---      ---       LVL=0

      01000858H   BLOCK     CODE     ---       LVL=0
      01000858H   BLOCK     CODE     NEAR LAB  LVL=1
      0000002CH   SYMBOL    DATA     BYTE      menu_sect
      00000067H   SYMBOL    DATA     BYTE      group
      00000021H.0 SYMBOL    BIT      BIT       menu_time6_flag
      00000021H.1 SYMBOL    BIT      BIT       menu_copy_flag
      00000021H.2 SYMBOL    BIT      BIT       menu_FCtemper_flag
      ---         BLOCKEND  ---      ---       LVL=1
      01000858H   LINE      CODE     ---       #522
      01000858H   LINE      CODE     ---       #523
      01000858H   LINE      CODE     ---       #525
      0100085BH   LINE      CODE     ---       #531
      0100085EH   LINE      CODE     ---       #532
      0100085EH   LINE      CODE     ---       #533
      01000860H   LINE      CODE     ---       #534
      01000863H   LINE      CODE     ---       #535
      01000866H   LINE      CODE     ---       #536
      01000866H   LINE      CODE     ---       #538
      0100086EH   LINE      CODE     ---       #539
      0100086EH   LINE      CODE     ---       #540
      01000870H   LINE      CODE     ---       #542
      01000872H   LINE      CODE     ---       #543
      01000872H   LINE      CODE     ---       #545
      0100087AH   LINE      CODE     ---       #546
      0100087AH   LINE      CODE     ---       #547
      0100087CH   LINE      CODE     ---       #549
      0100087EH   LINE      CODE     ---       #550
      01000882H   LINE      CODE     ---       #551
      01000885H   LINE      CODE     ---       #552
      01000885H   LINE      CODE     ---       #554
      0100088DH   LINE      CODE     ---       #555
      0100088DH   LINE      CODE     ---       #556
      01000890H   LINE      CODE     ---       #557
      01000892H   LINE      CODE     ---       #559
      01000892H   LINE      CODE     ---       #561
      010008A2H   LINE      CODE     ---       #562
      010008A2H   LINE      CODE     ---       #563
      010008A2H   LINE      CODE     ---       #564
      010008A4H   LINE      CODE     ---       #565
      010008A6H   LINE      CODE     ---       #566
      010008A8H   LINE      CODE     ---       #568
      010008B4H   LINE      CODE     ---       #569
      010008B4H   LINE      CODE     ---       #570
LX51 LINKER/LOCATER V4.66.66.0                                                        09/07/2020  22:21:36  PAGE 63


      010008B7H   LINE      CODE     ---       #571
      010008B7H   LINE      CODE     ---       #572
      010008B7H   LINE      CODE     ---       #573
      010008B7H   LINE      CODE     ---       #574
      010008B7H   LINE      CODE     ---       #576
      010008B9H   LINE      CODE     ---       #577
      010008B9H   LINE      CODE     ---       #578
      010008BBH   LINE      CODE     ---       #579
      010008BDH   LINE      CODE     ---       #580
      010008BFH   LINE      CODE     ---       #582
      010008CBH   LINE      CODE     ---       #583
      010008CBH   LINE      CODE     ---       #584
      010008CEH   LINE      CODE     ---       #585
      010008CEH   LINE      CODE     ---       #586
      010008CEH   LINE      CODE     ---       #587
      010008CEH   LINE      CODE     ---       #588
      010008CEH   LINE      CODE     ---       #590
      010008D0H   LINE      CODE     ---       #591
      010008D0H   LINE      CODE     ---       #592
      010008D2H   LINE      CODE     ---       #593
      010008D4H   LINE      CODE     ---       #594
      010008D6H   LINE      CODE     ---       #596
      010008E1H   LINE      CODE     ---       #597
      010008E1H   LINE      CODE     ---       #598
      010008E4H   LINE      CODE     ---       #599
      010008E6H   LINE      CODE     ---       #600
      010008E8H   LINE      CODE     ---       #601
      010008EAH   LINE      CODE     ---       #602
      010008EAH   LINE      CODE     ---       #604
      010008ECH   LINE      CODE     ---       #605
      010008ECH   LINE      CODE     ---       #606
      010008EFH   LINE      CODE     ---       #608
      010008EFH   LINE      CODE     ---       #609
      010008EFH   LINE      CODE     ---       #610
      010008F5H   LINE      CODE     ---       #611
      010008F5H   LINE      CODE     ---       #612
      010008FAH   LINE      CODE     ---       #613
      010008FFH   LINE      CODE     ---       #614
      01000904H   LINE      CODE     ---       #615
      0100090DH   LINE      CODE     ---       #617
      0100090FH   LINE      CODE     ---       #619
      01000912H   LINE      CODE     ---       #620
      01000912H   LINE      CODE     ---       #621
      0100091BH   LINE      CODE     ---       #622
      01000924H   LINE      CODE     ---       #623
      01000927H   LINE      CODE     ---       #624
      01000935H   LINE      CODE     ---       #626
      01000944H   LINE      CODE     ---       #627
      0100094AH   LINE      CODE     ---       #628
      0100094CH   LINE      CODE     ---       #629
      0100094FH   LINE      CODE     ---       #630
      0100094FH   LINE      CODE     ---       #631
      01000958H   LINE      CODE     ---       #632
      01000961H   LINE      CODE     ---       #633
      01000968H   LINE      CODE     ---       #634
      0100096DH   LINE      CODE     ---       #635
      01000972H   LINE      CODE     ---       #636
      01000972H   LINE      CODE     ---       #637
      01000975H   LINE      CODE     ---       #638
      01000975H   LINE      CODE     ---       #639
      0100097AH   LINE      CODE     ---       #640
      01000983H   LINE      CODE     ---       #641
      0100098CH   LINE      CODE     ---       #642
      01000995H   LINE      CODE     ---       #643
      0100099EH   LINE      CODE     ---       #644
LX51 LINKER/LOCATER V4.66.66.0                                                        09/07/2020  22:21:36  PAGE 64


      0100099EH   LINE      CODE     ---       #645
      0100099EH   LINE      CODE     ---       #647
      ---         BLOCKEND  ---      ---       LVL=0

      010013E8H   BLOCK     CODE     ---       LVL=0
      010013E8H   BLOCK     CODE     NEAR LAB  LVL=1
      0000002DH   SYMBOL    DATA     BYTE      time6_week_sect
      ---         BLOCKEND  ---      ---       LVL=1
      010013E8H   LINE      CODE     ---       #656
      010013E8H   LINE      CODE     ---       #657
      010013E8H   LINE      CODE     ---       #659
      010013EBH   LINE      CODE     ---       #660
      010013EBH   LINE      CODE     ---       #661
      010013EEH   LINE      CODE     ---       #662
      010013F0H   LINE      CODE     ---       #663
      010013F0H   LINE      CODE     ---       #665
      010013FBH   LINE      CODE     ---       #666
      010013FBH   LINE      CODE     ---       #667
      010013FDH   LINE      CODE     ---       #668
      010013FFH   LINE      CODE     ---       #669
      010013FFH   LINE      CODE     ---       #671
      0100140AH   LINE      CODE     ---       #672
      0100140AH   LINE      CODE     ---       #673
      0100140CH   LINE      CODE     ---       #674
      0100140EH   LINE      CODE     ---       #675
      0100140EH   LINE      CODE     ---       #677
      01001416H   LINE      CODE     ---       #678
      01001416H   LINE      CODE     ---       #679
      01001418H   LINE      CODE     ---       #680
      01001418H   LINE      CODE     ---       #683
      ---         BLOCKEND  ---      ---       LVL=0

      01001859H   BLOCK     CODE     ---       LVL=0
      01001859H   LINE      CODE     ---       #693
      01001859H   LINE      CODE     ---       #694
      01001859H   LINE      CODE     ---       #697
      ---         BLOCKEND  ---      ---       LVL=0

      0100185AH   BLOCK     CODE     ---       LVL=0
      0100185AH   LINE      CODE     ---       #707
      0100185AH   LINE      CODE     ---       #708
      0100185AH   LINE      CODE     ---       #711
      ---         BLOCKEND  ---      ---       LVL=0

      ---         MODULE    ---      ---       SC95F8X1X_DDIC
      02001000H   PUBLIC    XDATA    ---       LCDRAM
      0100156AH   PUBLIC    CODE     ---       _DDIC_Control
      0100180AH   PUBLIC    CODE     ---       _DDIC_Cmd
      010017FFH   PUBLIC    CODE     ---       _DDIC_OutputPinOfDutycycleD4
      010017F4H   PUBLIC    CODE     ---       _DDIC_DMOD_Selcet
      0100174EH   PUBLIC    CODE     ---       _DDIC_LCDConfig
      00000067H   PUBLIC    DATA     BYTE      ?_DDIC_Init?BYTE
      010016FAH   PUBLIC    CODE     ---       _DDIC_Init
      000000C8H.2 SFRSYM    DATA     BIT       TRX
      000000FFH   SFRSYM    DATA     BYTE      OPREG
      00000080H   SFRSYM    DATA     BYTE      P0
      00000090H   SFRSYM    DATA     BYTE      P1
      000000A0H   SFRSYM    DATA     BYTE      P2
      000000A8H.4 SFRSYM    DATA     BIT       EUART
      0000008EH   SFRSYM    DATA     BYTE      TMCON
      000000B0H   SFRSYM    DATA     BYTE      P3
      000000D0H.6 SFRSYM    DATA     BIT       AC
      000000C0H   SFRSYM    DATA     BYTE      P4
      0000008FH   SFRSYM    DATA     BYTE      OTCON
      000000D8H   SFRSYM    DATA     BYTE      P5
LX51 LINKER/LOCATER V4.66.66.0                                                        09/07/2020  22:21:36  PAGE 65


      000000A8H.7 SFRSYM    DATA     BIT       EA
      000000C8H.5 SFRSYM    DATA     BIT       RCLKX
      000000C8H.4 SFRSYM    DATA     BIT       TCLKX
      000000C8H.3 SFRSYM    DATA     BIT       EXENX
      000000A8H.6 SFRSYM    DATA     BIT       EADC
      000000C9H   SFRSYM    DATA     BYTE      TXMOD
      000000C8H   SFRSYM    DATA     BYTE      TXCON
      000000A8H   SFRSYM    DATA     BYTE      IE
      00000085H   SFRSYM    DATA     BYTE      DPH1
      000000E9H   SFRSYM    DATA     BYTE      EXA0
      000000EAH   SFRSYM    DATA     BYTE      EXA1
      000000FEH   SFRSYM    DATA     BYTE      OPINX
      000000EBH   SFRSYM    DATA     BYTE      EXA2
      000000ECH   SFRSYM    DATA     BYTE      EXA3
      00000084H   SFRSYM    DATA     BYTE      DPL1
      000000C8H   SFRSYM    DATA     BIT       CP
      000000EFH   SFRSYM    DATA     BYTE      OPERCON
      0000009BH   SFRSYM    DATA     BYTE      P0PH
      000000B8H   SFRSYM    DATA     BYTE      IP
      00000092H   SFRSYM    DATA     BYTE      P1PH
      00000098H   SFRSYM    DATA     BIT       RI
      000000A2H   SFRSYM    DATA     BYTE      P2PH
      000000D0H.7 SFRSYM    DATA     BIT       CY
      000000B2H   SFRSYM    DATA     BYTE      P3PH
      00000098H.1 SFRSYM    DATA     BIT       TI
      000000CEH   SFRSYM    DATA     BYTE      TXINX
      000000C2H   SFRSYM    DATA     BYTE      P4PH
      000000B8H.1 SFRSYM    DATA     BIT       IPT0
      000000DAH   SFRSYM    DATA     BYTE      P5PH
      000000B8H.3 SFRSYM    DATA     BIT       IPT1
      000000B8H.5 SFRSYM    DATA     BIT       IPT2
      00000081H   SFRSYM    DATA     BYTE      SP
      000000D0H.2 SFRSYM    DATA     BIT       OV
      000000F4H   SFRSYM    DATA     BYTE      IAPADE
      0000009CH   SFRSYM    DATA     BYTE      P0VO
      00000094H   SFRSYM    DATA     BYTE      P1VO
      000000EEH   SFRSYM    DATA     BYTE      EXBH
      000000A3H   SFRSYM    DATA     BYTE      P2VO
      000000F3H   SFRSYM    DATA     BYTE      IAPADH
      000000B3H   SFRSYM    DATA     BYTE      P3VO
      000000ADH   SFRSYM    DATA     BYTE      ADCCON
      000000C8H.1 SFRSYM    DATA     BIT       TX
      000000EDH   SFRSYM    DATA     BYTE      EXBL
      000000F2H   SFRSYM    DATA     BYTE      IAPADL
      00000080H   SFRSYM    DATA     BIT       P00
      00000090H   SFRSYM    DATA     BIT       P10
      00000080H.1 SFRSYM    DATA     BIT       P01
      00000099H   SFRSYM    DATA     BYTE      SBUF
      00000087H   SFRSYM    DATA     BYTE      PCON
      000000A0H   SFRSYM    DATA     BIT       P20
      00000090H.1 SFRSYM    DATA     BIT       P11
      00000080H.2 SFRSYM    DATA     BIT       P02
      000000B6H   SFRSYM    DATA     BYTE      CMPCFG
      000000B0H   SFRSYM    DATA     BIT       P30
      000000A0H.1 SFRSYM    DATA     BIT       P21
      00000090H.2 SFRSYM    DATA     BIT       P12
      00000080H.3 SFRSYM    DATA     BIT       P03
      000000C0H   SFRSYM    DATA     BIT       P40
      000000B0H.1 SFRSYM    DATA     BIT       P31
      000000A0H.2 SFRSYM    DATA     BIT       P22
      00000090H.3 SFRSYM    DATA     BIT       P13
      00000080H.4 SFRSYM    DATA     BIT       P04
      00000098H   SFRSYM    DATA     BYTE      SCON
      000000D8H   SFRSYM    DATA     BIT       P50
      000000C0H.1 SFRSYM    DATA     BIT       P41
LX51 LINKER/LOCATER V4.66.66.0                                                        09/07/2020  22:21:36  PAGE 66


      000000B0H.2 SFRSYM    DATA     BIT       P32
      000000A0H.3 SFRSYM    DATA     BIT       P23
      00000090H.4 SFRSYM    DATA     BIT       P14
      00000080H.5 SFRSYM    DATA     BIT       P05
      000000F5H   SFRSYM    DATA     BYTE      IAPDAT
      00000088H   SFRSYM    DATA     BYTE      TCON
      00000089H   SFRSYM    DATA     BYTE      TMOD
      000000D8H.1 SFRSYM    DATA     BIT       P51
      000000C0H.2 SFRSYM    DATA     BIT       P42
      000000B0H.3 SFRSYM    DATA     BIT       P33
      000000A0H.4 SFRSYM    DATA     BIT       P24
      00000090H.5 SFRSYM    DATA     BIT       P15
      00000080H.6 SFRSYM    DATA     BIT       P06
      000000B8H   SFRSYM    DATA     BIT       IPINT0
      000000D8H.2 SFRSYM    DATA     BIT       P52
      000000C0H.3 SFRSYM    DATA     BIT       P43
      000000B0H.4 SFRSYM    DATA     BIT       P34
      000000A0H.5 SFRSYM    DATA     BIT       P25
      00000090H.6 SFRSYM    DATA     BIT       P16
      00000080H.7 SFRSYM    DATA     BIT       P07
      000000B8H.2 SFRSYM    DATA     BIT       IPINT1
      000000D8H.3 SFRSYM    DATA     BIT       P53
      000000C0H.4 SFRSYM    DATA     BIT       P44
      000000B0H.5 SFRSYM    DATA     BIT       P35
      000000A0H.6 SFRSYM    DATA     BIT       P26
      00000090H.7 SFRSYM    DATA     BIT       P17
      000000FDH   SFRSYM    DATA     BYTE      CRCREG
      000000D8H.4 SFRSYM    DATA     BIT       P54
      000000C0H.5 SFRSYM    DATA     BIT       P45
      000000B0H.6 SFRSYM    DATA     BIT       P36
      000000A0H.7 SFRSYM    DATA     BIT       P27
      000000D8H.5 SFRSYM    DATA     BIT       P55
      000000C0H.6 SFRSYM    DATA     BIT       P46
      000000B0H.7 SFRSYM    DATA     BIT       P37
      000000C0H.7 SFRSYM    DATA     BIT       P47
      000000C8H.6 SFRSYM    DATA     BIT       EXFX
      00000093H   SFRSYM    DATA     BYTE      DDRCON
      000000F6H   SFRSYM    DATA     BYTE      IAPCTL
      000000A9H   SFRSYM    DATA     BYTE      IE1
      000000AAH   SFRSYM    DATA     BYTE      IE2
      000000F0H   SFRSYM    DATA     BYTE      B
      000000B7H   SFRSYM    DATA     BYTE      CMPCON
      000000F1H   SFRSYM    DATA     BYTE      IAPKEY
      000000FBH   SFRSYM    DATA     BYTE      BTMCON
      000000D4H   SFRSYM    DATA     BYTE      PWMCFG
      000000E0H   SFRSYM    DATA     BYTE      ACC
      000000CBH   SFRSYM    DATA     BYTE      RCAPXH
      000000A8H.1 SFRSYM    DATA     BIT       ET0
      000000FCH   SFRSYM    DATA     BYTE      CRCINX
      00000088H.5 SFRSYM    DATA     BIT       TF0
      000000A8H.3 SFRSYM    DATA     BIT       ET1
      000000ABH   SFRSYM    DATA     BYTE      ADCCFG0
      000000B9H   SFRSYM    DATA     BYTE      IP1
      00000088H.7 SFRSYM    DATA     BIT       TF1
      000000A8H.5 SFRSYM    DATA     BIT       ET2
      000000ACH   SFRSYM    DATA     BYTE      ADCCFG1
      000000BAH   SFRSYM    DATA     BYTE      IP2
      00000098H.2 SFRSYM    DATA     BIT       RB8
      000000B5H   SFRSYM    DATA     BYTE      ADCCFG2
      000000CAH   SFRSYM    DATA     BYTE      RCAPXL
      0000008CH   SFRSYM    DATA     BYTE      TH0
      0000008DH   SFRSYM    DATA     BYTE      TH1
      00000098H.3 SFRSYM    DATA     BIT       TB8
      000000D0H   SFRSYM    DATA     BIT       P
      00000098H.7 SFRSYM    DATA     BIT       SM0
LX51 LINKER/LOCATER V4.66.66.0                                                        09/07/2020  22:21:36  PAGE 67


      0000008AH   SFRSYM    DATA     BYTE      TL0
      00000098H.6 SFRSYM    DATA     BIT       SM1
      000000CFH   SFRSYM    DATA     BYTE      WDTCON
      0000008BH   SFRSYM    DATA     BYTE      TL1
      00000098H.5 SFRSYM    DATA     BIT       SM2
      000000D5H   SFRSYM    DATA     BYTE      PWMDFR
      000000D0H.3 SFRSYM    DATA     BIT       RS0
      00000088H.4 SFRSYM    DATA     BIT       TR0
      000000D0H.4 SFRSYM    DATA     BIT       RS1
      000000D3H   SFRSYM    DATA     BYTE      PWMCON
      000000D7H   SFRSYM    DATA     BYTE      PWMMOD
      00000088H.6 SFRSYM    DATA     BIT       TR1
      000000B8H.4 SFRSYM    DATA     BIT       IPUART
      000000D6H   SFRSYM    DATA     BYTE      PWMFLT
      00000083H   SFRSYM    DATA     BYTE      DPH
      00000082H   SFRSYM    DATA     BYTE      DPL
      000000A8H   SFRSYM    DATA     BIT       EINT0
      0000009AH   SFRSYM    DATA     BYTE      P0CON
      000000A8H.2 SFRSYM    DATA     BIT       EINT1
      000000B8H.6 SFRSYM    DATA     BIT       IPADC
      000000B4H   SFRSYM    DATA     BYTE      INT0F
      00000091H   SFRSYM    DATA     BYTE      P1CON
      000000BCH   SFRSYM    DATA     BYTE      INT1F
      000000A1H   SFRSYM    DATA     BYTE      P2CON
      000000BEH   SFRSYM    DATA     BYTE      INT2F
      000000B1H   SFRSYM    DATA     BYTE      P3CON
      00000098H.4 SFRSYM    DATA     BIT       REN
      000000C1H   SFRSYM    DATA     BYTE      P4CON
      000000D9H   SFRSYM    DATA     BYTE      P5CON
      000000AFH   SFRSYM    DATA     BYTE      ADCVH
      00000086H   SFRSYM    DATA     BYTE      DPS
      00000095H   SFRSYM    DATA     BYTE      US0CON0
      000000F7H   SFRSYM    DATA     BYTE      EXADH
      000000A4H   SFRSYM    DATA     BYTE      US1CON0
      0000009DH   SFRSYM    DATA     BYTE      US0CON1
      000000AEH   SFRSYM    DATA     BYTE      ADCVL
      000000C4H   SFRSYM    DATA     BYTE      US2CON0
      000000A5H   SFRSYM    DATA     BYTE      US1CON1
      0000009EH   SFRSYM    DATA     BYTE      US0CON2
      000000C5H   SFRSYM    DATA     BYTE      US2CON1
      000000A6H   SFRSYM    DATA     BYTE      US1CON2
      0000009FH   SFRSYM    DATA     BYTE      US0CON3
      000000C6H   SFRSYM    DATA     BYTE      US2CON2
      000000A7H   SFRSYM    DATA     BYTE      US1CON3
      000000BBH   SFRSYM    DATA     BYTE      INT0R
      000000C7H   SFRSYM    DATA     BYTE      US2CON3
      000000BDH   SFRSYM    DATA     BYTE      INT1R
      000000BFH   SFRSYM    DATA     BYTE      INT2R
      000000C8H.7 SFRSYM    DATA     BIT       TFX
      00000096H   SFRSYM    DATA     BYTE      IOHCON0
      00000097H   SFRSYM    DATA     BYTE      IOHCON1
      000000CDH   SFRSYM    DATA     BYTE      THX
      000000D0H.5 SFRSYM    DATA     BIT       F0
      000000D0H.1 SFRSYM    DATA     BIT       F1
      000000CCH   SFRSYM    DATA     BYTE      TLX
      000000D0H   SFRSYM    DATA     BYTE      PSW

      010016FAH   BLOCK     CODE     ---       LVL=0
      00000007H   SYMBOL    DATA     BYTE      DDIC_DutyCylce
      00000005H   SYMBOL    DATA     BYTE      P0OutputPin
      00000003H   SYMBOL    DATA     BYTE      P1OutputPin
      0000006AH   SYMBOL    DATA     BYTE      P2OutputPin
      0000006BH   SYMBOL    DATA     BYTE      P3OutputPin
      010016FAH   LINE      CODE     ---       #42
      010016FAH   LINE      CODE     ---       #43
LX51 LINKER/LOCATER V4.66.66.0                                                        09/07/2020  22:21:36  PAGE 68


      010016FAH   LINE      CODE     ---       #44
      01001701H   LINE      CODE     ---       #45
      01001703H   LINE      CODE     ---       #46
      01001705H   LINE      CODE     ---       #47
      01001708H   LINE      CODE     ---       #48
      0100170BH   LINE      CODE     ---       #49
      ---         BLOCKEND  ---      ---       LVL=0

      0100174EH   BLOCK     CODE     ---       LVL=0
      00000007H   SYMBOL    DATA     BYTE      LCDVoltage
      00000005H   SYMBOL    DATA     BYTE      DDIC_ResSel
      00000003H   SYMBOL    DATA     BYTE      DDIC_BiasVoltage
      0100174EH   LINE      CODE     ---       #70
      0100174EH   LINE      CODE     ---       #71
      0100174EH   LINE      CODE     ---       #72
      01001755H   LINE      CODE     ---       #73
      0100175DH   LINE      CODE     ---       #74
      ---         BLOCKEND  ---      ---       LVL=0

      010017F4H   BLOCK     CODE     ---       LVL=0
      00000007H   SYMBOL    DATA     BYTE      DDIC_DMOD
      010017F4H   LINE      CODE     ---       #81
      010017F4H   LINE      CODE     ---       #82
      010017F4H   LINE      CODE     ---       #83
      010017F7H   LINE      CODE     ---       #84
      010017F7H   LINE      CODE     ---       #85
      010017FAH   LINE      CODE     ---       #86
      010017FBH   LINE      CODE     ---       #88
      010017FBH   LINE      CODE     ---       #89
      010017FEH   LINE      CODE     ---       #90
      010017FEH   LINE      CODE     ---       #91
      ---         BLOCKEND  ---      ---       LVL=0

      010017FFH   BLOCK     CODE     ---       LVL=0
      00000007H   SYMBOL    DATA     BYTE      DDIC_OutputPin
      010017FFH   LINE      CODE     ---       #98
      010017FFH   LINE      CODE     ---       #99
      010017FFH   LINE      CODE     ---       #100
      01001802H   LINE      CODE     ---       #101
      01001802H   LINE      CODE     ---       #102
      01001805H   LINE      CODE     ---       #103
      01001806H   LINE      CODE     ---       #105
      01001806H   LINE      CODE     ---       #106
      01001809H   LINE      CODE     ---       #107
      01001809H   LINE      CODE     ---       #108
      ---         BLOCKEND  ---      ---       LVL=0

      0100180AH   BLOCK     CODE     ---       LVL=0
      00000007H   SYMBOL    DATA     BYTE      NewState
      0100180AH   LINE      CODE     ---       #116
      0100180AH   LINE      CODE     ---       #117
      0100180AH   LINE      CODE     ---       #118
      0100180DH   LINE      CODE     ---       #119
      0100180DH   LINE      CODE     ---       #120
      01001810H   LINE      CODE     ---       #121
      01001811H   LINE      CODE     ---       #123
      01001811H   LINE      CODE     ---       #124
      01001814H   LINE      CODE     ---       #125
      01001814H   LINE      CODE     ---       #126
      ---         BLOCKEND  ---      ---       LVL=0

      0100156AH   BLOCK     CODE     ---       LVL=0
      00000007H   SYMBOL    DATA     BYTE      DDIC_Seg
      00000005H   SYMBOL    DATA     BYTE      DDIC_Com
      00000003H   SYMBOL    DATA     BYTE      DDIC_Contr
LX51 LINKER/LOCATER V4.66.66.0                                                        09/07/2020  22:21:36  PAGE 69


      0100156AH   LINE      CODE     ---       #135
      0100156AH   LINE      CODE     ---       #136
      0100156AH   LINE      CODE     ---       #137
      0100156DH   LINE      CODE     ---       #138
      0100156DH   LINE      CODE     ---       #139
      0100157AH   LINE      CODE     ---       #140
      0100157BH   LINE      CODE     ---       #142
      0100157BH   LINE      CODE     ---       #143
      0100158DH   LINE      CODE     ---       #144
      0100158DH   LINE      CODE     ---       #145
      ---         BLOCKEND  ---      ---       LVL=0

      ---         MODULE    ---      ---       SC95F8X1X_GPIO
      01000DA1H   PUBLIC    CODE     ---       _GPIO_Init
      000000C8H.2 SFRSYM    DATA     BIT       TRX
      000000FFH   SFRSYM    DATA     BYTE      OPREG
      00000080H   SFRSYM    DATA     BYTE      P0
      00000090H   SFRSYM    DATA     BYTE      P1
      000000A0H   SFRSYM    DATA     BYTE      P2
      000000A8H.4 SFRSYM    DATA     BIT       EUART
      0000008EH   SFRSYM    DATA     BYTE      TMCON
      000000B0H   SFRSYM    DATA     BYTE      P3
      000000D0H.6 SFRSYM    DATA     BIT       AC
      000000C0H   SFRSYM    DATA     BYTE      P4
      0000008FH   SFRSYM    DATA     BYTE      OTCON
      000000D8H   SFRSYM    DATA     BYTE      P5
      000000A8H.7 SFRSYM    DATA     BIT       EA
      000000C8H.5 SFRSYM    DATA     BIT       RCLKX
      000000C8H.4 SFRSYM    DATA     BIT       TCLKX
      000000C8H.3 SFRSYM    DATA     BIT       EXENX
      000000A8H.6 SFRSYM    DATA     BIT       EADC
      000000C9H   SFRSYM    DATA     BYTE      TXMOD
      000000C8H   SFRSYM    DATA     BYTE      TXCON
      000000A8H   SFRSYM    DATA     BYTE      IE
      00000085H   SFRSYM    DATA     BYTE      DPH1
      000000E9H   SFRSYM    DATA     BYTE      EXA0
      000000EAH   SFRSYM    DATA     BYTE      EXA1
      000000FEH   SFRSYM    DATA     BYTE      OPINX
      000000EBH   SFRSYM    DATA     BYTE      EXA2
      000000ECH   SFRSYM    DATA     BYTE      EXA3
      00000084H   SFRSYM    DATA     BYTE      DPL1
      000000C8H   SFRSYM    DATA     BIT       CP
      000000EFH   SFRSYM    DATA     BYTE      OPERCON
      0000009BH   SFRSYM    DATA     BYTE      P0PH
      000000B8H   SFRSYM    DATA     BYTE      IP
      00000092H   SFRSYM    DATA     BYTE      P1PH
      00000098H   SFRSYM    DATA     BIT       RI
      000000A2H   SFRSYM    DATA     BYTE      P2PH
      000000D0H.7 SFRSYM    DATA     BIT       CY
      000000B2H   SFRSYM    DATA     BYTE      P3PH
      00000098H.1 SFRSYM    DATA     BIT       TI
      000000CEH   SFRSYM    DATA     BYTE      TXINX
      000000C2H   SFRSYM    DATA     BYTE      P4PH
      000000B8H.1 SFRSYM    DATA     BIT       IPT0
      000000DAH   SFRSYM    DATA     BYTE      P5PH
      000000B8H.3 SFRSYM    DATA     BIT       IPT1
      000000B8H.5 SFRSYM    DATA     BIT       IPT2
      00000081H   SFRSYM    DATA     BYTE      SP
      000000D0H.2 SFRSYM    DATA     BIT       OV
      000000F4H   SFRSYM    DATA     BYTE      IAPADE
      0000009CH   SFRSYM    DATA     BYTE      P0VO
      00000094H   SFRSYM    DATA     BYTE      P1VO
      000000EEH   SFRSYM    DATA     BYTE      EXBH
      000000A3H   SFRSYM    DATA     BYTE      P2VO
      000000F3H   SFRSYM    DATA     BYTE      IAPADH
LX51 LINKER/LOCATER V4.66.66.0                                                        09/07/2020  22:21:36  PAGE 70


      000000B3H   SFRSYM    DATA     BYTE      P3VO
      000000ADH   SFRSYM    DATA     BYTE      ADCCON
      000000C8H.1 SFRSYM    DATA     BIT       TX
      000000EDH   SFRSYM    DATA     BYTE      EXBL
      000000F2H   SFRSYM    DATA     BYTE      IAPADL
      00000080H   SFRSYM    DATA     BIT       P00
      00000090H   SFRSYM    DATA     BIT       P10
      00000080H.1 SFRSYM    DATA     BIT       P01
      00000099H   SFRSYM    DATA     BYTE      SBUF
      00000087H   SFRSYM    DATA     BYTE      PCON
      000000A0H   SFRSYM    DATA     BIT       P20
      00000090H.1 SFRSYM    DATA     BIT       P11
      00000080H.2 SFRSYM    DATA     BIT       P02
      000000B6H   SFRSYM    DATA     BYTE      CMPCFG
      000000B0H   SFRSYM    DATA     BIT       P30
      000000A0H.1 SFRSYM    DATA     BIT       P21
      00000090H.2 SFRSYM    DATA     BIT       P12
      00000080H.3 SFRSYM    DATA     BIT       P03
      000000C0H   SFRSYM    DATA     BIT       P40
      000000B0H.1 SFRSYM    DATA     BIT       P31
      000000A0H.2 SFRSYM    DATA     BIT       P22
      00000090H.3 SFRSYM    DATA     BIT       P13
      00000080H.4 SFRSYM    DATA     BIT       P04
      00000098H   SFRSYM    DATA     BYTE      SCON
      000000D8H   SFRSYM    DATA     BIT       P50
      000000C0H.1 SFRSYM    DATA     BIT       P41
      000000B0H.2 SFRSYM    DATA     BIT       P32
      000000A0H.3 SFRSYM    DATA     BIT       P23
      00000090H.4 SFRSYM    DATA     BIT       P14
      00000080H.5 SFRSYM    DATA     BIT       P05
      000000F5H   SFRSYM    DATA     BYTE      IAPDAT
      00000088H   SFRSYM    DATA     BYTE      TCON
      00000089H   SFRSYM    DATA     BYTE      TMOD
      000000D8H.1 SFRSYM    DATA     BIT       P51
      000000C0H.2 SFRSYM    DATA     BIT       P42
      000000B0H.3 SFRSYM    DATA     BIT       P33
      000000A0H.4 SFRSYM    DATA     BIT       P24
      00000090H.5 SFRSYM    DATA     BIT       P15
      00000080H.6 SFRSYM    DATA     BIT       P06
      000000B8H   SFRSYM    DATA     BIT       IPINT0
      000000D8H.2 SFRSYM    DATA     BIT       P52
      000000C0H.3 SFRSYM    DATA     BIT       P43
      000000B0H.4 SFRSYM    DATA     BIT       P34
      000000A0H.5 SFRSYM    DATA     BIT       P25
      00000090H.6 SFRSYM    DATA     BIT       P16
      00000080H.7 SFRSYM    DATA     BIT       P07
      000000B8H.2 SFRSYM    DATA     BIT       IPINT1
      000000D8H.3 SFRSYM    DATA     BIT       P53
      000000C0H.4 SFRSYM    DATA     BIT       P44
      000000B0H.5 SFRSYM    DATA     BIT       P35
      000000A0H.6 SFRSYM    DATA     BIT       P26
      00000090H.7 SFRSYM    DATA     BIT       P17
      000000FDH   SFRSYM    DATA     BYTE      CRCREG
      000000D8H.4 SFRSYM    DATA     BIT       P54
      000000C0H.5 SFRSYM    DATA     BIT       P45
      000000B0H.6 SFRSYM    DATA     BIT       P36
      000000A0H.7 SFRSYM    DATA     BIT       P27
      000000D8H.5 SFRSYM    DATA     BIT       P55
      000000C0H.6 SFRSYM    DATA     BIT       P46
      000000B0H.7 SFRSYM    DATA     BIT       P37
      000000C0H.7 SFRSYM    DATA     BIT       P47
      000000C8H.6 SFRSYM    DATA     BIT       EXFX
      00000093H   SFRSYM    DATA     BYTE      DDRCON
      000000F6H   SFRSYM    DATA     BYTE      IAPCTL
      000000A9H   SFRSYM    DATA     BYTE      IE1
LX51 LINKER/LOCATER V4.66.66.0                                                        09/07/2020  22:21:36  PAGE 71


      000000AAH   SFRSYM    DATA     BYTE      IE2
      000000F0H   SFRSYM    DATA     BYTE      B
      000000B7H   SFRSYM    DATA     BYTE      CMPCON
      000000F1H   SFRSYM    DATA     BYTE      IAPKEY
      000000FBH   SFRSYM    DATA     BYTE      BTMCON
      000000D4H   SFRSYM    DATA     BYTE      PWMCFG
      000000E0H   SFRSYM    DATA     BYTE      ACC
      000000CBH   SFRSYM    DATA     BYTE      RCAPXH
      000000A8H.1 SFRSYM    DATA     BIT       ET0
      000000FCH   SFRSYM    DATA     BYTE      CRCINX
      00000088H.5 SFRSYM    DATA     BIT       TF0
      000000A8H.3 SFRSYM    DATA     BIT       ET1
      000000ABH   SFRSYM    DATA     BYTE      ADCCFG0
      000000B9H   SFRSYM    DATA     BYTE      IP1
      00000088H.7 SFRSYM    DATA     BIT       TF1
      000000A8H.5 SFRSYM    DATA     BIT       ET2
      000000ACH   SFRSYM    DATA     BYTE      ADCCFG1
      000000BAH   SFRSYM    DATA     BYTE      IP2
      00000098H.2 SFRSYM    DATA     BIT       RB8
      000000B5H   SFRSYM    DATA     BYTE      ADCCFG2
      000000CAH   SFRSYM    DATA     BYTE      RCAPXL
      0000008CH   SFRSYM    DATA     BYTE      TH0
      0000008DH   SFRSYM    DATA     BYTE      TH1
      00000098H.3 SFRSYM    DATA     BIT       TB8
      000000D0H   SFRSYM    DATA     BIT       P
      00000098H.7 SFRSYM    DATA     BIT       SM0
      0000008AH   SFRSYM    DATA     BYTE      TL0
      00000098H.6 SFRSYM    DATA     BIT       SM1
      000000CFH   SFRSYM    DATA     BYTE      WDTCON
      0000008BH   SFRSYM    DATA     BYTE      TL1
      00000098H.5 SFRSYM    DATA     BIT       SM2
      000000D5H   SFRSYM    DATA     BYTE      PWMDFR
      000000D0H.3 SFRSYM    DATA     BIT       RS0
      00000088H.4 SFRSYM    DATA     BIT       TR0
      000000D0H.4 SFRSYM    DATA     BIT       RS1
      000000D3H   SFRSYM    DATA     BYTE      PWMCON
      000000D7H   SFRSYM    DATA     BYTE      PWMMOD
      00000088H.6 SFRSYM    DATA     BIT       TR1
      000000B8H.4 SFRSYM    DATA     BIT       IPUART
      000000D6H   SFRSYM    DATA     BYTE      PWMFLT
      00000083H   SFRSYM    DATA     BYTE      DPH
      00000082H   SFRSYM    DATA     BYTE      DPL
      000000A8H   SFRSYM    DATA     BIT       EINT0
      0000009AH   SFRSYM    DATA     BYTE      P0CON
      000000A8H.2 SFRSYM    DATA     BIT       EINT1
      000000B8H.6 SFRSYM    DATA     BIT       IPADC
      000000B4H   SFRSYM    DATA     BYTE      INT0F
      00000091H   SFRSYM    DATA     BYTE      P1CON
      000000BCH   SFRSYM    DATA     BYTE      INT1F
      000000A1H   SFRSYM    DATA     BYTE      P2CON
      000000BEH   SFRSYM    DATA     BYTE      INT2F
      000000B1H   SFRSYM    DATA     BYTE      P3CON
      00000098H.4 SFRSYM    DATA     BIT       REN
      000000C1H   SFRSYM    DATA     BYTE      P4CON
      000000D9H   SFRSYM    DATA     BYTE      P5CON
      000000AFH   SFRSYM    DATA     BYTE      ADCVH
      00000086H   SFRSYM    DATA     BYTE      DPS
      00000095H   SFRSYM    DATA     BYTE      US0CON0
      000000F7H   SFRSYM    DATA     BYTE      EXADH
      000000A4H   SFRSYM    DATA     BYTE      US1CON0
      0000009DH   SFRSYM    DATA     BYTE      US0CON1
      000000AEH   SFRSYM    DATA     BYTE      ADCVL
      000000C4H   SFRSYM    DATA     BYTE      US2CON0
      000000A5H   SFRSYM    DATA     BYTE      US1CON1
      0000009EH   SFRSYM    DATA     BYTE      US0CON2
LX51 LINKER/LOCATER V4.66.66.0                                                        09/07/2020  22:21:36  PAGE 72


      000000C5H   SFRSYM    DATA     BYTE      US2CON1
      000000A6H   SFRSYM    DATA     BYTE      US1CON2
      0000009FH   SFRSYM    DATA     BYTE      US0CON3
      000000C6H   SFRSYM    DATA     BYTE      US2CON2
      000000A7H   SFRSYM    DATA     BYTE      US1CON3
      000000BBH   SFRSYM    DATA     BYTE      INT0R
      000000C7H   SFRSYM    DATA     BYTE      US2CON3
      000000BDH   SFRSYM    DATA     BYTE      INT1R
      000000BFH   SFRSYM    DATA     BYTE      INT2R
      000000C8H.7 SFRSYM    DATA     BIT       TFX
      00000096H   SFRSYM    DATA     BYTE      IOHCON0
      00000097H   SFRSYM    DATA     BYTE      IOHCON1
      000000CDH   SFRSYM    DATA     BYTE      THX
      000000D0H.5 SFRSYM    DATA     BIT       F0
      000000D0H.1 SFRSYM    DATA     BIT       F1
      000000CCH   SFRSYM    DATA     BYTE      TLX
      000000D0H   SFRSYM    DATA     BYTE      PSW

      01000DA1H   BLOCK     CODE     ---       LVL=0
      00000007H   SYMBOL    DATA     BYTE      GPIOx
      00000005H   SYMBOL    DATA     BYTE      PortPins
      00000003H   SYMBOL    DATA     BYTE      GPIO_Mode
      01000DA1H   LINE      CODE     ---       #45
      01000DA1H   LINE      CODE     ---       #46
      01000DA1H   LINE      CODE     ---       #47
      01000DA4H   LINE      CODE     ---       #48
      01000DA4H   LINE      CODE     ---       #49
      01000DA7H   LINE      CODE     ---       #50
      01000DA7H   LINE      CODE     ---       #51
      01000DABH   LINE      CODE     ---       #52
      01000DADH   LINE      CODE     ---       #53
      01000DADH   LINE      CODE     ---       #54
      01000DB0H   LINE      CODE     ---       #55
      01000DB0H   LINE      CODE     ---       #56
      01000DB4H   LINE      CODE     ---       #57
      01000DB7H   LINE      CODE     ---       #58
      01000DB7H   LINE      CODE     ---       #59
      01000DBFH   LINE      CODE     ---       #60
      01000DBFH   LINE      CODE     ---       #61
      01000DC2H   LINE      CODE     ---       #62
      01000DC2H   LINE      CODE     ---       #63
      01000DC3H   LINE      CODE     ---       #64
      01000DC8H   LINE      CODE     ---       #65
      01000DC8H   LINE      CODE     ---       #66
      01000DCBH   LINE      CODE     ---       #67
      01000DCBH   LINE      CODE     ---       #68
      01000DCFH   LINE      CODE     ---       #69
      01000DD1H   LINE      CODE     ---       #70
      01000DD1H   LINE      CODE     ---       #71
      01000DD4H   LINE      CODE     ---       #72
      01000DD4H   LINE      CODE     ---       #73
      01000DD8H   LINE      CODE     ---       #74
      01000DDBH   LINE      CODE     ---       #75
      01000DDBH   LINE      CODE     ---       #76
      01000DE3H   LINE      CODE     ---       #77
      01000DE3H   LINE      CODE     ---       #78
      01000DE6H   LINE      CODE     ---       #79
      01000DE6H   LINE      CODE     ---       #80
      01000DE7H   LINE      CODE     ---       #81
      01000DECH   LINE      CODE     ---       #82
      01000DECH   LINE      CODE     ---       #83
      01000DEFH   LINE      CODE     ---       #84
      01000DEFH   LINE      CODE     ---       #85
      01000DF3H   LINE      CODE     ---       #86
      01000DF5H   LINE      CODE     ---       #87
LX51 LINKER/LOCATER V4.66.66.0                                                        09/07/2020  22:21:36  PAGE 73


      01000DF5H   LINE      CODE     ---       #88
      01000DF8H   LINE      CODE     ---       #89
      01000DF8H   LINE      CODE     ---       #90
      01000DFCH   LINE      CODE     ---       #91
      01000DFFH   LINE      CODE     ---       #92
      01000DFFH   LINE      CODE     ---       #93
      01000E04H   LINE      CODE     ---       #94
      01000E04H   LINE      CODE     ---       #95
      01000E07H   LINE      CODE     ---       #96
      01000E07H   LINE      CODE     ---       #97
      01000E08H   LINE      CODE     ---       #98
      01000E0DH   LINE      CODE     ---       #99
      01000E0DH   LINE      CODE     ---       #100
      01000E10H   LINE      CODE     ---       #101
      01000E10H   LINE      CODE     ---       #102
      01000E14H   LINE      CODE     ---       #103
      01000E16H   LINE      CODE     ---       #104
      01000E16H   LINE      CODE     ---       #105
      01000E19H   LINE      CODE     ---       #106
      01000E19H   LINE      CODE     ---       #107
      01000E1DH   LINE      CODE     ---       #108
      01000E20H   LINE      CODE     ---       #109
      01000E20H   LINE      CODE     ---       #110
      01000E25H   LINE      CODE     ---       #111
      01000E25H   LINE      CODE     ---       #112
      01000E28H   LINE      CODE     ---       #113
      01000E28H   LINE      CODE     ---       #114
      01000E29H   LINE      CODE     ---       #115
      01000E2EH   LINE      CODE     ---       #116
      01000E2EH   LINE      CODE     ---       #117
      01000E31H   LINE      CODE     ---       #118
      01000E31H   LINE      CODE     ---       #119
      01000E35H   LINE      CODE     ---       #120
      01000E37H   LINE      CODE     ---       #121
      01000E37H   LINE      CODE     ---       #122
      01000E3AH   LINE      CODE     ---       #123
      01000E3AH   LINE      CODE     ---       #124
      01000E3EH   LINE      CODE     ---       #125
      01000E41H   LINE      CODE     ---       #126
      01000E41H   LINE      CODE     ---       #127
      01000E46H   LINE      CODE     ---       #128
      01000E46H   LINE      CODE     ---       #129
      01000E49H   LINE      CODE     ---       #130
      01000E49H   LINE      CODE     ---       #131
      01000E4AH   LINE      CODE     ---       #133
      01000E4AH   LINE      CODE     ---       #134
      01000E4FH   LINE      CODE     ---       #135
      01000E4FH   LINE      CODE     ---       #136
      01000E52H   LINE      CODE     ---       #137
      01000E52H   LINE      CODE     ---       #138
      01000E56H   LINE      CODE     ---       #139
      01000E58H   LINE      CODE     ---       #140
      01000E58H   LINE      CODE     ---       #141
      01000E5BH   LINE      CODE     ---       #142
      01000E5BH   LINE      CODE     ---       #143
      01000E5FH   LINE      CODE     ---       #144
      01000E62H   LINE      CODE     ---       #145
      01000E62H   LINE      CODE     ---       #146
      01000E65H   LINE      CODE     ---       #147
      01000E65H   LINE      CODE     ---       #148
      01000E68H   LINE      CODE     ---       #149
      01000E68H   LINE      CODE     ---       #150
      01000E68H   LINE      CODE     ---       #151
      01000E68H   LINE      CODE     ---       #152
      ---         BLOCKEND  ---      ---       LVL=0
LX51 LINKER/LOCATER V4.66.66.0                                                        09/07/2020  22:21:36  PAGE 74


      00000007H   SYMBOL    DATA     BYTE      GPIOx
      00000005H   SYMBOL    DATA     BYTE      PortVal
      00000007H   SYMBOL    DATA     BYTE      GPIOx
      00000005H   SYMBOL    DATA     BYTE      PortPins
      00000007H   SYMBOL    DATA     BYTE      GPIOx
      00000005H   SYMBOL    DATA     BYTE      PortPins
      00000007H   SYMBOL    DATA     BYTE      GPIOx
      00000007H   SYMBOL    DATA     BYTE      GPIOx
      00000005H   SYMBOL    DATA     BYTE      PortPins

      ---         MODULE    ---      ---       SC95F8X1X_INT
      010016A5H   PUBLIC    CODE     ---       _INT2_ITConfig
      0100168FH   PUBLIC    CODE     ---       _INT1_ITConfig
      01001679H   PUBLIC    CODE     ---       _INT0_ITConfig
      010014CAH   PUBLIC    CODE     ---       _INT2_SetTriggerMode
      0100149FH   PUBLIC    CODE     ---       _INT1_SetTriggerMode
      01001474H   PUBLIC    CODE     ---       _INT0_SetTriggerMode
      000000C8H.2 SFRSYM    DATA     BIT       TRX
      000000FFH   SFRSYM    DATA     BYTE      OPREG
      00000080H   SFRSYM    DATA     BYTE      P0
      00000090H   SFRSYM    DATA     BYTE      P1
      000000A0H   SFRSYM    DATA     BYTE      P2
      000000A8H.4 SFRSYM    DATA     BIT       EUART
      0000008EH   SFRSYM    DATA     BYTE      TMCON
      000000B0H   SFRSYM    DATA     BYTE      P3
      000000D0H.6 SFRSYM    DATA     BIT       AC
      000000C0H   SFRSYM    DATA     BYTE      P4
      0000008FH   SFRSYM    DATA     BYTE      OTCON
      000000D8H   SFRSYM    DATA     BYTE      P5
      000000A8H.7 SFRSYM    DATA     BIT       EA
      000000C8H.5 SFRSYM    DATA     BIT       RCLKX
      000000C8H.4 SFRSYM    DATA     BIT       TCLKX
      000000C8H.3 SFRSYM    DATA     BIT       EXENX
      000000A8H.6 SFRSYM    DATA     BIT       EADC
      000000C9H   SFRSYM    DATA     BYTE      TXMOD
      000000C8H   SFRSYM    DATA     BYTE      TXCON
      000000A8H   SFRSYM    DATA     BYTE      IE
      00000085H   SFRSYM    DATA     BYTE      DPH1
      000000E9H   SFRSYM    DATA     BYTE      EXA0
      000000EAH   SFRSYM    DATA     BYTE      EXA1
      000000FEH   SFRSYM    DATA     BYTE      OPINX
      000000EBH   SFRSYM    DATA     BYTE      EXA2
      000000ECH   SFRSYM    DATA     BYTE      EXA3
      00000084H   SFRSYM    DATA     BYTE      DPL1
      000000C8H   SFRSYM    DATA     BIT       CP
      000000EFH   SFRSYM    DATA     BYTE      OPERCON
      0000009BH   SFRSYM    DATA     BYTE      P0PH
      000000B8H   SFRSYM    DATA     BYTE      IP
      00000092H   SFRSYM    DATA     BYTE      P1PH
      00000098H   SFRSYM    DATA     BIT       RI
      000000A2H   SFRSYM    DATA     BYTE      P2PH
      000000D0H.7 SFRSYM    DATA     BIT       CY
      000000B2H   SFRSYM    DATA     BYTE      P3PH
      00000098H.1 SFRSYM    DATA     BIT       TI
      000000CEH   SFRSYM    DATA     BYTE      TXINX
      000000C2H   SFRSYM    DATA     BYTE      P4PH
      000000B8H.1 SFRSYM    DATA     BIT       IPT0
      000000DAH   SFRSYM    DATA     BYTE      P5PH
      000000B8H.3 SFRSYM    DATA     BIT       IPT1
      000000B8H.5 SFRSYM    DATA     BIT       IPT2
      00000081H   SFRSYM    DATA     BYTE      SP
      000000D0H.2 SFRSYM    DATA     BIT       OV
      000000F4H   SFRSYM    DATA     BYTE      IAPADE
      0000009CH   SFRSYM    DATA     BYTE      P0VO
      00000094H   SFRSYM    DATA     BYTE      P1VO
LX51 LINKER/LOCATER V4.66.66.0                                                        09/07/2020  22:21:36  PAGE 75


      000000EEH   SFRSYM    DATA     BYTE      EXBH
      000000A3H   SFRSYM    DATA     BYTE      P2VO
      000000F3H   SFRSYM    DATA     BYTE      IAPADH
      000000B3H   SFRSYM    DATA     BYTE      P3VO
      000000ADH   SFRSYM    DATA     BYTE      ADCCON
      000000C8H.1 SFRSYM    DATA     BIT       TX
      000000EDH   SFRSYM    DATA     BYTE      EXBL
      000000F2H   SFRSYM    DATA     BYTE      IAPADL
      00000080H   SFRSYM    DATA     BIT       P00
      00000090H   SFRSYM    DATA     BIT       P10
      00000080H.1 SFRSYM    DATA     BIT       P01
      00000099H   SFRSYM    DATA     BYTE      SBUF
      00000087H   SFRSYM    DATA     BYTE      PCON
      000000A0H   SFRSYM    DATA     BIT       P20
      00000090H.1 SFRSYM    DATA     BIT       P11
      00000080H.2 SFRSYM    DATA     BIT       P02
      000000B6H   SFRSYM    DATA     BYTE      CMPCFG
      000000B0H   SFRSYM    DATA     BIT       P30
      000000A0H.1 SFRSYM    DATA     BIT       P21
      00000090H.2 SFRSYM    DATA     BIT       P12
      00000080H.3 SFRSYM    DATA     BIT       P03
      000000C0H   SFRSYM    DATA     BIT       P40
      000000B0H.1 SFRSYM    DATA     BIT       P31
      000000A0H.2 SFRSYM    DATA     BIT       P22
      00000090H.3 SFRSYM    DATA     BIT       P13
      00000080H.4 SFRSYM    DATA     BIT       P04
      00000098H   SFRSYM    DATA     BYTE      SCON
      000000D8H   SFRSYM    DATA     BIT       P50
      000000C0H.1 SFRSYM    DATA     BIT       P41
      000000B0H.2 SFRSYM    DATA     BIT       P32
      000000A0H.3 SFRSYM    DATA     BIT       P23
      00000090H.4 SFRSYM    DATA     BIT       P14
      00000080H.5 SFRSYM    DATA     BIT       P05
      000000F5H   SFRSYM    DATA     BYTE      IAPDAT
      00000088H   SFRSYM    DATA     BYTE      TCON
      00000089H   SFRSYM    DATA     BYTE      TMOD
      000000D8H.1 SFRSYM    DATA     BIT       P51
      000000C0H.2 SFRSYM    DATA     BIT       P42
      000000B0H.3 SFRSYM    DATA     BIT       P33
      000000A0H.4 SFRSYM    DATA     BIT       P24
      00000090H.5 SFRSYM    DATA     BIT       P15
      00000080H.6 SFRSYM    DATA     BIT       P06
      000000B8H   SFRSYM    DATA     BIT       IPINT0
      000000D8H.2 SFRSYM    DATA     BIT       P52
      000000C0H.3 SFRSYM    DATA     BIT       P43
      000000B0H.4 SFRSYM    DATA     BIT       P34
      000000A0H.5 SFRSYM    DATA     BIT       P25
      00000090H.6 SFRSYM    DATA     BIT       P16
      00000080H.7 SFRSYM    DATA     BIT       P07
      000000B8H.2 SFRSYM    DATA     BIT       IPINT1
      000000D8H.3 SFRSYM    DATA     BIT       P53
      000000C0H.4 SFRSYM    DATA     BIT       P44
      000000B0H.5 SFRSYM    DATA     BIT       P35
      000000A0H.6 SFRSYM    DATA     BIT       P26
      00000090H.7 SFRSYM    DATA     BIT       P17
      000000FDH   SFRSYM    DATA     BYTE      CRCREG
      000000D8H.4 SFRSYM    DATA     BIT       P54
      000000C0H.5 SFRSYM    DATA     BIT       P45
      000000B0H.6 SFRSYM    DATA     BIT       P36
      000000A0H.7 SFRSYM    DATA     BIT       P27
      000000D8H.5 SFRSYM    DATA     BIT       P55
      000000C0H.6 SFRSYM    DATA     BIT       P46
      000000B0H.7 SFRSYM    DATA     BIT       P37
      000000C0H.7 SFRSYM    DATA     BIT       P47
      000000C8H.6 SFRSYM    DATA     BIT       EXFX
LX51 LINKER/LOCATER V4.66.66.0                                                        09/07/2020  22:21:36  PAGE 76


      00000093H   SFRSYM    DATA     BYTE      DDRCON
      000000F6H   SFRSYM    DATA     BYTE      IAPCTL
      000000A9H   SFRSYM    DATA     BYTE      IE1
      000000AAH   SFRSYM    DATA     BYTE      IE2
      000000F0H   SFRSYM    DATA     BYTE      B
      000000B7H   SFRSYM    DATA     BYTE      CMPCON
      000000F1H   SFRSYM    DATA     BYTE      IAPKEY
      000000FBH   SFRSYM    DATA     BYTE      BTMCON
      000000D4H   SFRSYM    DATA     BYTE      PWMCFG
      000000E0H   SFRSYM    DATA     BYTE      ACC
      000000CBH   SFRSYM    DATA     BYTE      RCAPXH
      000000A8H.1 SFRSYM    DATA     BIT       ET0
      000000FCH   SFRSYM    DATA     BYTE      CRCINX
      00000088H.5 SFRSYM    DATA     BIT       TF0
      000000A8H.3 SFRSYM    DATA     BIT       ET1
      000000ABH   SFRSYM    DATA     BYTE      ADCCFG0
      000000B9H   SFRSYM    DATA     BYTE      IP1
      00000088H.7 SFRSYM    DATA     BIT       TF1
      000000A8H.5 SFRSYM    DATA     BIT       ET2
      000000ACH   SFRSYM    DATA     BYTE      ADCCFG1
      000000BAH   SFRSYM    DATA     BYTE      IP2
      00000098H.2 SFRSYM    DATA     BIT       RB8
      000000B5H   SFRSYM    DATA     BYTE      ADCCFG2
      000000CAH   SFRSYM    DATA     BYTE      RCAPXL
      0000008CH   SFRSYM    DATA     BYTE      TH0
      0000008DH   SFRSYM    DATA     BYTE      TH1
      00000098H.3 SFRSYM    DATA     BIT       TB8
      000000D0H   SFRSYM    DATA     BIT       P
      00000098H.7 SFRSYM    DATA     BIT       SM0
      0000008AH   SFRSYM    DATA     BYTE      TL0
      00000098H.6 SFRSYM    DATA     BIT       SM1
      000000CFH   SFRSYM    DATA     BYTE      WDTCON
      0000008BH   SFRSYM    DATA     BYTE      TL1
      00000098H.5 SFRSYM    DATA     BIT       SM2
      000000D5H   SFRSYM    DATA     BYTE      PWMDFR
      000000D0H.3 SFRSYM    DATA     BIT       RS0
      00000088H.4 SFRSYM    DATA     BIT       TR0
      000000D0H.4 SFRSYM    DATA     BIT       RS1
      000000D3H   SFRSYM    DATA     BYTE      PWMCON
      000000D7H   SFRSYM    DATA     BYTE      PWMMOD
      00000088H.6 SFRSYM    DATA     BIT       TR1
      000000B8H.4 SFRSYM    DATA     BIT       IPUART
      000000D6H   SFRSYM    DATA     BYTE      PWMFLT
      00000083H   SFRSYM    DATA     BYTE      DPH
      00000082H   SFRSYM    DATA     BYTE      DPL
      000000A8H   SFRSYM    DATA     BIT       EINT0
      0000009AH   SFRSYM    DATA     BYTE      P0CON
      000000A8H.2 SFRSYM    DATA     BIT       EINT1
      000000B8H.6 SFRSYM    DATA     BIT       IPADC
      000000B4H   SFRSYM    DATA     BYTE      INT0F
      00000091H   SFRSYM    DATA     BYTE      P1CON
      000000BCH   SFRSYM    DATA     BYTE      INT1F
      000000A1H   SFRSYM    DATA     BYTE      P2CON
      000000BEH   SFRSYM    DATA     BYTE      INT2F
      000000B1H   SFRSYM    DATA     BYTE      P3CON
      00000098H.4 SFRSYM    DATA     BIT       REN
      000000C1H   SFRSYM    DATA     BYTE      P4CON
      000000D9H   SFRSYM    DATA     BYTE      P5CON
      000000AFH   SFRSYM    DATA     BYTE      ADCVH
      00000086H   SFRSYM    DATA     BYTE      DPS
      00000095H   SFRSYM    DATA     BYTE      US0CON0
      000000F7H   SFRSYM    DATA     BYTE      EXADH
      000000A4H   SFRSYM    DATA     BYTE      US1CON0
      0000009DH   SFRSYM    DATA     BYTE      US0CON1
      000000AEH   SFRSYM    DATA     BYTE      ADCVL
LX51 LINKER/LOCATER V4.66.66.0                                                        09/07/2020  22:21:36  PAGE 77


      000000C4H   SFRSYM    DATA     BYTE      US2CON0
      000000A5H   SFRSYM    DATA     BYTE      US1CON1
      0000009EH   SFRSYM    DATA     BYTE      US0CON2
      000000C5H   SFRSYM    DATA     BYTE      US2CON1
      000000A6H   SFRSYM    DATA     BYTE      US1CON2
      0000009FH   SFRSYM    DATA     BYTE      US0CON3
      000000C6H   SFRSYM    DATA     BYTE      US2CON2
      000000A7H   SFRSYM    DATA     BYTE      US1CON3
      000000BBH   SFRSYM    DATA     BYTE      INT0R
      000000C7H   SFRSYM    DATA     BYTE      US2CON3
      000000BDH   SFRSYM    DATA     BYTE      INT1R
      000000BFH   SFRSYM    DATA     BYTE      INT2R
      000000C8H.7 SFRSYM    DATA     BIT       TFX
      00000096H   SFRSYM    DATA     BYTE      IOHCON0
      00000097H   SFRSYM    DATA     BYTE      IOHCON1
      000000CDH   SFRSYM    DATA     BYTE      THX
      000000D0H.5 SFRSYM    DATA     BIT       F0
      000000D0H.1 SFRSYM    DATA     BIT       F1
      000000CCH   SFRSYM    DATA     BYTE      TLX
      000000D0H   SFRSYM    DATA     BYTE      PSW
      00000007H   SYMBOL    DATA     BYTE      INTx

      01001474H   BLOCK     CODE     ---       LVL=0
      00000007H   SYMBOL    DATA     BYTE      INT0x
      00000005H   SYMBOL    DATA     BYTE      TriggerMode
      01001474H   LINE      CODE     ---       #59
      01001474H   LINE      CODE     ---       #60
      01001474H   LINE      CODE     ---       #61
      01001483H   LINE      CODE     ---       #62
      01001483H   LINE      CODE     ---       #63
      01001483H   LINE      CODE     ---       #64
      01001486H   LINE      CODE     ---       #65
      0100148AH   LINE      CODE     ---       #66
      0100148BH   LINE      CODE     ---       #67
      0100148BH   LINE      CODE     ---       #68
      0100148FH   LINE      CODE     ---       #69
      0100148FH   LINE      CODE     ---       #70
      01001491H   LINE      CODE     ---       #71
      01001491H   LINE      CODE     ---       #72
      01001494H   LINE      CODE     ---       #73
      01001497H   LINE      CODE     ---       #74
      01001498H   LINE      CODE     ---       #75
      01001498H   LINE      CODE     ---       #76
      0100149CH   LINE      CODE     ---       #77
      0100149EH   LINE      CODE     ---       #78
      0100149EH   LINE      CODE     ---       #79
      0100149EH   LINE      CODE     ---       #80
      0100149EH   LINE      CODE     ---       #81
      ---         BLOCKEND  ---      ---       LVL=0

      0100149FH   BLOCK     CODE     ---       LVL=0
      00000007H   SYMBOL    DATA     BYTE      INT1x
      00000005H   SYMBOL    DATA     BYTE      TriggerMode
      0100149FH   LINE      CODE     ---       #90
      0100149FH   LINE      CODE     ---       #91
      0100149FH   LINE      CODE     ---       #92
      010014AEH   LINE      CODE     ---       #93
      010014AEH   LINE      CODE     ---       #94
      010014AEH   LINE      CODE     ---       #95
      010014B1H   LINE      CODE     ---       #96
      010014B5H   LINE      CODE     ---       #97
      010014B6H   LINE      CODE     ---       #98
      010014B6H   LINE      CODE     ---       #99
      010014BAH   LINE      CODE     ---       #100
      010014BAH   LINE      CODE     ---       #101
LX51 LINKER/LOCATER V4.66.66.0                                                        09/07/2020  22:21:36  PAGE 78


      010014BCH   LINE      CODE     ---       #102
      010014BCH   LINE      CODE     ---       #103
      010014BFH   LINE      CODE     ---       #104
      010014C2H   LINE      CODE     ---       #105
      010014C3H   LINE      CODE     ---       #106
      010014C3H   LINE      CODE     ---       #107
      010014C7H   LINE      CODE     ---       #108
      010014C9H   LINE      CODE     ---       #109
      010014C9H   LINE      CODE     ---       #110
      010014C9H   LINE      CODE     ---       #111
      010014C9H   LINE      CODE     ---       #112
      ---         BLOCKEND  ---      ---       LVL=0

      010014CAH   BLOCK     CODE     ---       LVL=0
      00000007H   SYMBOL    DATA     BYTE      INT2x
      00000005H   SYMBOL    DATA     BYTE      TriggerMode
      010014CAH   LINE      CODE     ---       #121
      010014CAH   LINE      CODE     ---       #122
      010014CAH   LINE      CODE     ---       #123
      010014D9H   LINE      CODE     ---       #124
      010014D9H   LINE      CODE     ---       #125
      010014D9H   LINE      CODE     ---       #126
      010014DCH   LINE      CODE     ---       #127
      010014E0H   LINE      CODE     ---       #128
      010014E1H   LINE      CODE     ---       #129
      010014E1H   LINE      CODE     ---       #130
      010014E5H   LINE      CODE     ---       #131
      010014E5H   LINE      CODE     ---       #132
      010014E7H   LINE      CODE     ---       #133
      010014E7H   LINE      CODE     ---       #134
      010014EAH   LINE      CODE     ---       #135
      010014EDH   LINE      CODE     ---       #136
      010014EEH   LINE      CODE     ---       #137
      010014EEH   LINE      CODE     ---       #138
      010014F2H   LINE      CODE     ---       #139
      010014F4H   LINE      CODE     ---       #140
      010014F4H   LINE      CODE     ---       #141
      010014F4H   LINE      CODE     ---       #142
      010014F4H   LINE      CODE     ---       #143
      ---         BLOCKEND  ---      ---       LVL=0

      01001679H   BLOCK     CODE     ---       LVL=0
      00000007H   SYMBOL    DATA     BYTE      NewState
      00000005H   SYMBOL    DATA     BYTE      Priority
      01001679H   LINE      CODE     ---       #152
      01001679H   LINE      CODE     ---       #153
      01001679H   LINE      CODE     ---       #154
      0100167CH   LINE      CODE     ---       #155
      0100167CH   LINE      CODE     ---       #156
      0100167FH   LINE      CODE     ---       #157
      01001681H   LINE      CODE     ---       #159
      01001681H   LINE      CODE     ---       #160
      01001684H   LINE      CODE     ---       #161
      01001684H   LINE      CODE     ---       #163
      01001687H   LINE      CODE     ---       #164
      01001687H   LINE      CODE     ---       #165
      0100168AH   LINE      CODE     ---       #166
      0100168BH   LINE      CODE     ---       #168
      0100168BH   LINE      CODE     ---       #169
      0100168EH   LINE      CODE     ---       #170
      0100168EH   LINE      CODE     ---       #171
      ---         BLOCKEND  ---      ---       LVL=0

      0100168FH   BLOCK     CODE     ---       LVL=0
      00000007H   SYMBOL    DATA     BYTE      NewState
LX51 LINKER/LOCATER V4.66.66.0                                                        09/07/2020  22:21:36  PAGE 79


      00000005H   SYMBOL    DATA     BYTE      Priority
      0100168FH   LINE      CODE     ---       #180
      0100168FH   LINE      CODE     ---       #181
      0100168FH   LINE      CODE     ---       #182
      01001692H   LINE      CODE     ---       #183
      01001692H   LINE      CODE     ---       #184
      01001695H   LINE      CODE     ---       #185
      01001697H   LINE      CODE     ---       #187
      01001697H   LINE      CODE     ---       #188
      0100169AH   LINE      CODE     ---       #189
      0100169AH   LINE      CODE     ---       #191
      0100169DH   LINE      CODE     ---       #192
      0100169DH   LINE      CODE     ---       #193
      010016A0H   LINE      CODE     ---       #194
      010016A1H   LINE      CODE     ---       #196
      010016A1H   LINE      CODE     ---       #197
      010016A4H   LINE      CODE     ---       #198
      010016A4H   LINE      CODE     ---       #199
      ---         BLOCKEND  ---      ---       LVL=0

      010016A5H   BLOCK     CODE     ---       LVL=0
      00000007H   SYMBOL    DATA     BYTE      NewState
      00000005H   SYMBOL    DATA     BYTE      Priority
      010016A5H   LINE      CODE     ---       #208
      010016A5H   LINE      CODE     ---       #209
      010016A5H   LINE      CODE     ---       #210
      010016A8H   LINE      CODE     ---       #211
      010016A8H   LINE      CODE     ---       #212
      010016ABH   LINE      CODE     ---       #213
      010016ADH   LINE      CODE     ---       #215
      010016ADH   LINE      CODE     ---       #216
      010016B0H   LINE      CODE     ---       #217
      010016B0H   LINE      CODE     ---       #219
      010016B3H   LINE      CODE     ---       #220
      010016B3H   LINE      CODE     ---       #221
      010016B6H   LINE      CODE     ---       #222
      010016B7H   LINE      CODE     ---       #224
      010016B7H   LINE      CODE     ---       #225
      010016BAH   LINE      CODE     ---       #226
      010016BAH   LINE      CODE     ---       #227
      ---         BLOCKEND  ---      ---       LVL=0

      ---         MODULE    ---      ---       SC95F8X1X_OPTION
      010017A7H   PUBLIC    CODE     ---       _OPTION_JTG_Cmd
      0100182BH   PUBLIC    CODE     ---       _OPTION_IAP_SetOperateRange
      0100162EH   PUBLIC    CODE     ---       _OPTION_ADC_VrefConfig
      01001820H   PUBLIC    CODE     ---       _OPTION_LVR_Init
      01001799H   PUBLIC    CODE     ---       _OPTION_RST_PIN_Cmd
      01001815H   PUBLIC    CODE     ---       _OPTION_SYSCLK_Init
      0100178BH   PUBLIC    CODE     ---       _OPTION_XTIPLL_Cmd
      000000C8H.2 SFRSYM    DATA     BIT       TRX
      000000FFH   SFRSYM    DATA     BYTE      OPREG
      00000080H   SFRSYM    DATA     BYTE      P0
      00000090H   SFRSYM    DATA     BYTE      P1
      000000A0H   SFRSYM    DATA     BYTE      P2
      000000A8H.4 SFRSYM    DATA     BIT       EUART
      0000008EH   SFRSYM    DATA     BYTE      TMCON
      000000B0H   SFRSYM    DATA     BYTE      P3
      000000D0H.6 SFRSYM    DATA     BIT       AC
      000000C0H   SFRSYM    DATA     BYTE      P4
      0000008FH   SFRSYM    DATA     BYTE      OTCON
      000000D8H   SFRSYM    DATA     BYTE      P5
      000000A8H.7 SFRSYM    DATA     BIT       EA
      000000C8H.5 SFRSYM    DATA     BIT       RCLKX
      000000C8H.4 SFRSYM    DATA     BIT       TCLKX
LX51 LINKER/LOCATER V4.66.66.0                                                        09/07/2020  22:21:36  PAGE 80


      000000C8H.3 SFRSYM    DATA     BIT       EXENX
      000000A8H.6 SFRSYM    DATA     BIT       EADC
      000000C9H   SFRSYM    DATA     BYTE      TXMOD
      000000C8H   SFRSYM    DATA     BYTE      TXCON
      000000A8H   SFRSYM    DATA     BYTE      IE
      00000085H   SFRSYM    DATA     BYTE      DPH1
      000000E9H   SFRSYM    DATA     BYTE      EXA0
      000000EAH   SFRSYM    DATA     BYTE      EXA1
      000000FEH   SFRSYM    DATA     BYTE      OPINX
      000000EBH   SFRSYM    DATA     BYTE      EXA2
      000000ECH   SFRSYM    DATA     BYTE      EXA3
      00000084H   SFRSYM    DATA     BYTE      DPL1
      000000C8H   SFRSYM    DATA     BIT       CP
      000000EFH   SFRSYM    DATA     BYTE      OPERCON
      0000009BH   SFRSYM    DATA     BYTE      P0PH
      000000B8H   SFRSYM    DATA     BYTE      IP
      00000092H   SFRSYM    DATA     BYTE      P1PH
      00000098H   SFRSYM    DATA     BIT       RI
      000000A2H   SFRSYM    DATA     BYTE      P2PH
      000000D0H.7 SFRSYM    DATA     BIT       CY
      000000B2H   SFRSYM    DATA     BYTE      P3PH
      00000098H.1 SFRSYM    DATA     BIT       TI
      000000CEH   SFRSYM    DATA     BYTE      TXINX
      000000C2H   SFRSYM    DATA     BYTE      P4PH
      000000B8H.1 SFRSYM    DATA     BIT       IPT0
      000000DAH   SFRSYM    DATA     BYTE      P5PH
      000000B8H.3 SFRSYM    DATA     BIT       IPT1
      000000B8H.5 SFRSYM    DATA     BIT       IPT2
      00000081H   SFRSYM    DATA     BYTE      SP
      000000D0H.2 SFRSYM    DATA     BIT       OV
      000000F4H   SFRSYM    DATA     BYTE      IAPADE
      0000009CH   SFRSYM    DATA     BYTE      P0VO
      00000094H   SFRSYM    DATA     BYTE      P1VO
      000000EEH   SFRSYM    DATA     BYTE      EXBH
      000000A3H   SFRSYM    DATA     BYTE      P2VO
      000000F3H   SFRSYM    DATA     BYTE      IAPADH
      000000B3H   SFRSYM    DATA     BYTE      P3VO
      000000ADH   SFRSYM    DATA     BYTE      ADCCON
      000000C8H.1 SFRSYM    DATA     BIT       TX
      000000EDH   SFRSYM    DATA     BYTE      EXBL
      000000F2H   SFRSYM    DATA     BYTE      IAPADL
      00000080H   SFRSYM    DATA     BIT       P00
      00000090H   SFRSYM    DATA     BIT       P10
      00000080H.1 SFRSYM    DATA     BIT       P01
      00000099H   SFRSYM    DATA     BYTE      SBUF
      00000087H   SFRSYM    DATA     BYTE      PCON
      000000A0H   SFRSYM    DATA     BIT       P20
      00000090H.1 SFRSYM    DATA     BIT       P11
      00000080H.2 SFRSYM    DATA     BIT       P02
      000000B6H   SFRSYM    DATA     BYTE      CMPCFG
      000000B0H   SFRSYM    DATA     BIT       P30
      000000A0H.1 SFRSYM    DATA     BIT       P21
      00000090H.2 SFRSYM    DATA     BIT       P12
      00000080H.3 SFRSYM    DATA     BIT       P03
      000000C0H   SFRSYM    DATA     BIT       P40
      000000B0H.1 SFRSYM    DATA     BIT       P31
      000000A0H.2 SFRSYM    DATA     BIT       P22
      00000090H.3 SFRSYM    DATA     BIT       P13
      00000080H.4 SFRSYM    DATA     BIT       P04
      00000098H   SFRSYM    DATA     BYTE      SCON
      000000D8H   SFRSYM    DATA     BIT       P50
      000000C0H.1 SFRSYM    DATA     BIT       P41
      000000B0H.2 SFRSYM    DATA     BIT       P32
      000000A0H.3 SFRSYM    DATA     BIT       P23
      00000090H.4 SFRSYM    DATA     BIT       P14
LX51 LINKER/LOCATER V4.66.66.0                                                        09/07/2020  22:21:36  PAGE 81


      00000080H.5 SFRSYM    DATA     BIT       P05
      000000F5H   SFRSYM    DATA     BYTE      IAPDAT
      00000088H   SFRSYM    DATA     BYTE      TCON
      00000089H   SFRSYM    DATA     BYTE      TMOD
      000000D8H.1 SFRSYM    DATA     BIT       P51
      000000C0H.2 SFRSYM    DATA     BIT       P42
      000000B0H.3 SFRSYM    DATA     BIT       P33
      000000A0H.4 SFRSYM    DATA     BIT       P24
      00000090H.5 SFRSYM    DATA     BIT       P15
      00000080H.6 SFRSYM    DATA     BIT       P06
      000000B8H   SFRSYM    DATA     BIT       IPINT0
      000000D8H.2 SFRSYM    DATA     BIT       P52
      000000C0H.3 SFRSYM    DATA     BIT       P43
      000000B0H.4 SFRSYM    DATA     BIT       P34
      000000A0H.5 SFRSYM    DATA     BIT       P25
      00000090H.6 SFRSYM    DATA     BIT       P16
      00000080H.7 SFRSYM    DATA     BIT       P07
      000000B8H.2 SFRSYM    DATA     BIT       IPINT1
      000000D8H.3 SFRSYM    DATA     BIT       P53
      000000C0H.4 SFRSYM    DATA     BIT       P44
      000000B0H.5 SFRSYM    DATA     BIT       P35
      000000A0H.6 SFRSYM    DATA     BIT       P26
      00000090H.7 SFRSYM    DATA     BIT       P17
      000000FDH   SFRSYM    DATA     BYTE      CRCREG
      000000D8H.4 SFRSYM    DATA     BIT       P54
      000000C0H.5 SFRSYM    DATA     BIT       P45
      000000B0H.6 SFRSYM    DATA     BIT       P36
      000000A0H.7 SFRSYM    DATA     BIT       P27
      000000D8H.5 SFRSYM    DATA     BIT       P55
      000000C0H.6 SFRSYM    DATA     BIT       P46
      000000B0H.7 SFRSYM    DATA     BIT       P37
      000000C0H.7 SFRSYM    DATA     BIT       P47
      000000C8H.6 SFRSYM    DATA     BIT       EXFX
      00000093H   SFRSYM    DATA     BYTE      DDRCON
      000000F6H   SFRSYM    DATA     BYTE      IAPCTL
      000000A9H   SFRSYM    DATA     BYTE      IE1
      000000AAH   SFRSYM    DATA     BYTE      IE2
      000000F0H   SFRSYM    DATA     BYTE      B
      000000B7H   SFRSYM    DATA     BYTE      CMPCON
      000000F1H   SFRSYM    DATA     BYTE      IAPKEY
      000000FBH   SFRSYM    DATA     BYTE      BTMCON
      000000D4H   SFRSYM    DATA     BYTE      PWMCFG
      000000E0H   SFRSYM    DATA     BYTE      ACC
      000000CBH   SFRSYM    DATA     BYTE      RCAPXH
      000000A8H.1 SFRSYM    DATA     BIT       ET0
      000000FCH   SFRSYM    DATA     BYTE      CRCINX
      00000088H.5 SFRSYM    DATA     BIT       TF0
      000000A8H.3 SFRSYM    DATA     BIT       ET1
      000000ABH   SFRSYM    DATA     BYTE      ADCCFG0
      000000B9H   SFRSYM    DATA     BYTE      IP1
      00000088H.7 SFRSYM    DATA     BIT       TF1
      000000A8H.5 SFRSYM    DATA     BIT       ET2
      000000ACH   SFRSYM    DATA     BYTE      ADCCFG1
      000000BAH   SFRSYM    DATA     BYTE      IP2
      00000098H.2 SFRSYM    DATA     BIT       RB8
      000000B5H   SFRSYM    DATA     BYTE      ADCCFG2
      000000CAH   SFRSYM    DATA     BYTE      RCAPXL
      0000008CH   SFRSYM    DATA     BYTE      TH0
      0000008DH   SFRSYM    DATA     BYTE      TH1
      00000098H.3 SFRSYM    DATA     BIT       TB8
      000000D0H   SFRSYM    DATA     BIT       P
      00000098H.7 SFRSYM    DATA     BIT       SM0
      0000008AH   SFRSYM    DATA     BYTE      TL0
      00000098H.6 SFRSYM    DATA     BIT       SM1
      000000CFH   SFRSYM    DATA     BYTE      WDTCON
LX51 LINKER/LOCATER V4.66.66.0                                                        09/07/2020  22:21:36  PAGE 82


      0000008BH   SFRSYM    DATA     BYTE      TL1
      00000098H.5 SFRSYM    DATA     BIT       SM2
      000000D5H   SFRSYM    DATA     BYTE      PWMDFR
      000000D0H.3 SFRSYM    DATA     BIT       RS0
      00000088H.4 SFRSYM    DATA     BIT       TR0
      000000D0H.4 SFRSYM    DATA     BIT       RS1
      000000D3H   SFRSYM    DATA     BYTE      PWMCON
      000000D7H   SFRSYM    DATA     BYTE      PWMMOD
      00000088H.6 SFRSYM    DATA     BIT       TR1
      000000B8H.4 SFRSYM    DATA     BIT       IPUART
      000000D6H   SFRSYM    DATA     BYTE      PWMFLT
      00000083H   SFRSYM    DATA     BYTE      DPH
      00000082H   SFRSYM    DATA     BYTE      DPL
      000000A8H   SFRSYM    DATA     BIT       EINT0
      0000009AH   SFRSYM    DATA     BYTE      P0CON
      000000A8H.2 SFRSYM    DATA     BIT       EINT1
      000000B8H.6 SFRSYM    DATA     BIT       IPADC
      000000B4H   SFRSYM    DATA     BYTE      INT0F
      00000091H   SFRSYM    DATA     BYTE      P1CON
      000000BCH   SFRSYM    DATA     BYTE      INT1F
      000000A1H   SFRSYM    DATA     BYTE      P2CON
      000000BEH   SFRSYM    DATA     BYTE      INT2F
      000000B1H   SFRSYM    DATA     BYTE      P3CON
      00000098H.4 SFRSYM    DATA     BIT       REN
      000000C1H   SFRSYM    DATA     BYTE      P4CON
      000000D9H   SFRSYM    DATA     BYTE      P5CON
      000000AFH   SFRSYM    DATA     BYTE      ADCVH
      00000086H   SFRSYM    DATA     BYTE      DPS
      00000095H   SFRSYM    DATA     BYTE      US0CON0
      000000F7H   SFRSYM    DATA     BYTE      EXADH
      000000A4H   SFRSYM    DATA     BYTE      US1CON0
      0000009DH   SFRSYM    DATA     BYTE      US0CON1
      000000AEH   SFRSYM    DATA     BYTE      ADCVL
      000000C4H   SFRSYM    DATA     BYTE      US2CON0
      000000A5H   SFRSYM    DATA     BYTE      US1CON1
      0000009EH   SFRSYM    DATA     BYTE      US0CON2
      000000C5H   SFRSYM    DATA     BYTE      US2CON1
      000000A6H   SFRSYM    DATA     BYTE      US1CON2
      0000009FH   SFRSYM    DATA     BYTE      US0CON3
      000000C6H   SFRSYM    DATA     BYTE      US2CON2
      000000A7H   SFRSYM    DATA     BYTE      US1CON3
      000000BBH   SFRSYM    DATA     BYTE      INT0R
      000000C7H   SFRSYM    DATA     BYTE      US2CON3
      000000BDH   SFRSYM    DATA     BYTE      INT1R
      000000BFH   SFRSYM    DATA     BYTE      INT2R
      000000C8H.7 SFRSYM    DATA     BIT       TFX
      00000096H   SFRSYM    DATA     BYTE      IOHCON0
      00000097H   SFRSYM    DATA     BYTE      IOHCON1
      000000CDH   SFRSYM    DATA     BYTE      THX
      000000D0H.5 SFRSYM    DATA     BIT       F0
      000000D0H.1 SFRSYM    DATA     BIT       F1
      000000CCH   SFRSYM    DATA     BYTE      TLX
      000000D0H   SFRSYM    DATA     BYTE      PSW
      00000007H   SYMBOL    DATA     BYTE      NewState

      0100178BH   BLOCK     CODE     ---       LVL=0
      00000007H   SYMBOL    DATA     BYTE      NewState
      0100178BH   LINE      CODE     ---       #39
      0100178BH   LINE      CODE     ---       #40
      0100178BH   LINE      CODE     ---       #41
      0100178EH   LINE      CODE     ---       #42
      01001791H   LINE      CODE     ---       #43
      01001791H   LINE      CODE     ---       #44
      01001794H   LINE      CODE     ---       #45
      01001795H   LINE      CODE     ---       #47
LX51 LINKER/LOCATER V4.66.66.0                                                        09/07/2020  22:21:36  PAGE 83


      01001795H   LINE      CODE     ---       #48
      01001798H   LINE      CODE     ---       #49
      01001798H   LINE      CODE     ---       #50
      ---         BLOCKEND  ---      ---       LVL=0

      01001815H   BLOCK     CODE     ---       LVL=0
      00000007H   SYMBOL    DATA     BYTE      SYSCLK_PresSel
      01001815H   LINE      CODE     ---       #58
      01001815H   LINE      CODE     ---       #59
      01001815H   LINE      CODE     ---       #60
      01001818H   LINE      CODE     ---       #61
      0100181FH   LINE      CODE     ---       #62
      ---         BLOCKEND  ---      ---       LVL=0

      01001799H   BLOCK     CODE     ---       LVL=0
      00000007H   SYMBOL    DATA     BYTE      NewState
      01001799H   LINE      CODE     ---       #70
      01001799H   LINE      CODE     ---       #71
      01001799H   LINE      CODE     ---       #72
      0100179CH   LINE      CODE     ---       #73
      0100179FH   LINE      CODE     ---       #74
      0100179FH   LINE      CODE     ---       #75
      010017A2H   LINE      CODE     ---       #76
      010017A3H   LINE      CODE     ---       #78
      010017A3H   LINE      CODE     ---       #79
      010017A6H   LINE      CODE     ---       #80
      010017A6H   LINE      CODE     ---       #81
      ---         BLOCKEND  ---      ---       LVL=0

      01001820H   BLOCK     CODE     ---       LVL=0
      00000007H   SYMBOL    DATA     BYTE      LVR_Config
      01001820H   LINE      CODE     ---       #89
      01001820H   LINE      CODE     ---       #90
      01001820H   LINE      CODE     ---       #91
      01001823H   LINE      CODE     ---       #92
      0100182AH   LINE      CODE     ---       #93
      ---         BLOCKEND  ---      ---       LVL=0

      0100162EH   BLOCK     CODE     ---       LVL=0
      00000007H   SYMBOL    DATA     BYTE      ADC_Vref
      0100162EH   LINE      CODE     ---       #101
      0100162EH   LINE      CODE     ---       #102
      0100162EH   LINE      CODE     ---       #103
      01001631H   LINE      CODE     ---       #104
      01001634H   LINE      CODE     ---       #105
      01001634H   LINE      CODE     ---       #106
      01001637H   LINE      CODE     ---       #107
      0100163AH   LINE      CODE     ---       #108
      0100163AH   LINE      CODE     ---       #109
      0100163DH   LINE      CODE     ---       #110
      0100163DH   LINE      CODE     ---       #111
      01001640H   LINE      CODE     ---       #112
      01001643H   LINE      CODE     ---       #113
      01001643H   LINE      CODE     ---       #114
      01001646H   LINE      CODE     ---       #115
      01001646H   LINE      CODE     ---       #116
      01001649H   LINE      CODE     ---       #117
      01001649H   LINE      CODE     ---       #118
      ---         BLOCKEND  ---      ---       LVL=0

      0100182BH   BLOCK     CODE     ---       LVL=0
      00000007H   SYMBOL    DATA     BYTE      IAP_OperateRange
      0100182BH   LINE      CODE     ---       #126
      0100182BH   LINE      CODE     ---       #127
      0100182BH   LINE      CODE     ---       #128
LX51 LINKER/LOCATER V4.66.66.0                                                        09/07/2020  22:21:36  PAGE 84


      0100182EH   LINE      CODE     ---       #129
      01001835H   LINE      CODE     ---       #130
      ---         BLOCKEND  ---      ---       LVL=0

      010017A7H   BLOCK     CODE     ---       LVL=0
      00000007H   SYMBOL    DATA     BYTE      NewState
      010017A7H   LINE      CODE     ---       #138
      010017A7H   LINE      CODE     ---       #139
      010017A7H   LINE      CODE     ---       #140
      010017AAH   LINE      CODE     ---       #141
      010017ADH   LINE      CODE     ---       #142
      010017ADH   LINE      CODE     ---       #143
      010017B0H   LINE      CODE     ---       #144
      010017B1H   LINE      CODE     ---       #146
      010017B1H   LINE      CODE     ---       #147
      010017B4H   LINE      CODE     ---       #148
      010017B4H   LINE      CODE     ---       #149
      ---         BLOCKEND  ---      ---       LVL=0

      ---         MODULE    ---      ---       SC95F8X1X_TIMER2
      010016E5H   PUBLIC    CODE     ---       _TIM2_ITConfig
      010017E8H   PUBLIC    CODE     ---       _TIM2_Cmd
      0100175EH   PUBLIC    CODE     ---       _TIM2_WorkMode1Config
      0100160FH   PUBLIC    CODE     ---       _TIM2_TimeBaseInit
      0100171DH   PUBLIC    CODE     ---       _TIM2_PrescalerSelection
      000000C8H.2 SFRSYM    DATA     BIT       TRX
      000000FFH   SFRSYM    DATA     BYTE      OPREG
      00000080H   SFRSYM    DATA     BYTE      P0
      00000090H   SFRSYM    DATA     BYTE      P1
      000000A0H   SFRSYM    DATA     BYTE      P2
      000000A8H.4 SFRSYM    DATA     BIT       EUART
      0000008EH   SFRSYM    DATA     BYTE      TMCON
      000000B0H   SFRSYM    DATA     BYTE      P3
      000000D0H.6 SFRSYM    DATA     BIT       AC
      000000C0H   SFRSYM    DATA     BYTE      P4
      0000008FH   SFRSYM    DATA     BYTE      OTCON
      000000D8H   SFRSYM    DATA     BYTE      P5
      000000A8H.7 SFRSYM    DATA     BIT       EA
      000000C8H.5 SFRSYM    DATA     BIT       RCLKX
      000000C8H.4 SFRSYM    DATA     BIT       TCLKX
      000000C8H.3 SFRSYM    DATA     BIT       EXENX
      000000A8H.6 SFRSYM    DATA     BIT       EADC
      000000C9H   SFRSYM    DATA     BYTE      TXMOD
      000000C8H   SFRSYM    DATA     BYTE      TXCON
      000000A8H   SFRSYM    DATA     BYTE      IE
      00000085H   SFRSYM    DATA     BYTE      DPH1
      000000E9H   SFRSYM    DATA     BYTE      EXA0
      000000EAH   SFRSYM    DATA     BYTE      EXA1
      000000FEH   SFRSYM    DATA     BYTE      OPINX
      000000EBH   SFRSYM    DATA     BYTE      EXA2
      000000ECH   SFRSYM    DATA     BYTE      EXA3
      00000084H   SFRSYM    DATA     BYTE      DPL1
      000000C8H   SFRSYM    DATA     BIT       CP
      000000EFH   SFRSYM    DATA     BYTE      OPERCON
      0000009BH   SFRSYM    DATA     BYTE      P0PH
      000000B8H   SFRSYM    DATA     BYTE      IP
      00000092H   SFRSYM    DATA     BYTE      P1PH
      00000098H   SFRSYM    DATA     BIT       RI
      000000A2H   SFRSYM    DATA     BYTE      P2PH
      000000D0H.7 SFRSYM    DATA     BIT       CY
      000000B2H   SFRSYM    DATA     BYTE      P3PH
      00000098H.1 SFRSYM    DATA     BIT       TI
      000000CEH   SFRSYM    DATA     BYTE      TXINX
      000000C2H   SFRSYM    DATA     BYTE      P4PH
      000000B8H.1 SFRSYM    DATA     BIT       IPT0
LX51 LINKER/LOCATER V4.66.66.0                                                        09/07/2020  22:21:36  PAGE 85


      000000DAH   SFRSYM    DATA     BYTE      P5PH
      000000B8H.3 SFRSYM    DATA     BIT       IPT1
      000000B8H.5 SFRSYM    DATA     BIT       IPT2
      00000081H   SFRSYM    DATA     BYTE      SP
      000000D0H.2 SFRSYM    DATA     BIT       OV
      000000F4H   SFRSYM    DATA     BYTE      IAPADE
      0000009CH   SFRSYM    DATA     BYTE      P0VO
      00000094H   SFRSYM    DATA     BYTE      P1VO
      000000EEH   SFRSYM    DATA     BYTE      EXBH
      000000A3H   SFRSYM    DATA     BYTE      P2VO
      000000F3H   SFRSYM    DATA     BYTE      IAPADH
      000000B3H   SFRSYM    DATA     BYTE      P3VO
      000000ADH   SFRSYM    DATA     BYTE      ADCCON
      000000C8H.1 SFRSYM    DATA     BIT       TX
      000000EDH   SFRSYM    DATA     BYTE      EXBL
      000000F2H   SFRSYM    DATA     BYTE      IAPADL
      00000080H   SFRSYM    DATA     BIT       P00
      00000090H   SFRSYM    DATA     BIT       P10
      00000080H.1 SFRSYM    DATA     BIT       P01
      00000099H   SFRSYM    DATA     BYTE      SBUF
      00000087H   SFRSYM    DATA     BYTE      PCON
      000000A0H   SFRSYM    DATA     BIT       P20
      00000090H.1 SFRSYM    DATA     BIT       P11
      00000080H.2 SFRSYM    DATA     BIT       P02
      000000B6H   SFRSYM    DATA     BYTE      CMPCFG
      000000B0H   SFRSYM    DATA     BIT       P30
      000000A0H.1 SFRSYM    DATA     BIT       P21
      00000090H.2 SFRSYM    DATA     BIT       P12
      00000080H.3 SFRSYM    DATA     BIT       P03
      000000C0H   SFRSYM    DATA     BIT       P40
      000000B0H.1 SFRSYM    DATA     BIT       P31
      000000A0H.2 SFRSYM    DATA     BIT       P22
      00000090H.3 SFRSYM    DATA     BIT       P13
      00000080H.4 SFRSYM    DATA     BIT       P04
      00000098H   SFRSYM    DATA     BYTE      SCON
      000000D8H   SFRSYM    DATA     BIT       P50
      000000C0H.1 SFRSYM    DATA     BIT       P41
      000000B0H.2 SFRSYM    DATA     BIT       P32
      000000A0H.3 SFRSYM    DATA     BIT       P23
      00000090H.4 SFRSYM    DATA     BIT       P14
      00000080H.5 SFRSYM    DATA     BIT       P05
      000000F5H   SFRSYM    DATA     BYTE      IAPDAT
      00000088H   SFRSYM    DATA     BYTE      TCON
      00000089H   SFRSYM    DATA     BYTE      TMOD
      000000D8H.1 SFRSYM    DATA     BIT       P51
      000000C0H.2 SFRSYM    DATA     BIT       P42
      000000B0H.3 SFRSYM    DATA     BIT       P33
      000000A0H.4 SFRSYM    DATA     BIT       P24
      00000090H.5 SFRSYM    DATA     BIT       P15
      00000080H.6 SFRSYM    DATA     BIT       P06
      000000B8H   SFRSYM    DATA     BIT       IPINT0
      000000D8H.2 SFRSYM    DATA     BIT       P52
      000000C0H.3 SFRSYM    DATA     BIT       P43
      000000B0H.4 SFRSYM    DATA     BIT       P34
      000000A0H.5 SFRSYM    DATA     BIT       P25
      00000090H.6 SFRSYM    DATA     BIT       P16
      00000080H.7 SFRSYM    DATA     BIT       P07
      000000B8H.2 SFRSYM    DATA     BIT       IPINT1
      000000D8H.3 SFRSYM    DATA     BIT       P53
      000000C0H.4 SFRSYM    DATA     BIT       P44
      000000B0H.5 SFRSYM    DATA     BIT       P35
      000000A0H.6 SFRSYM    DATA     BIT       P26
      00000090H.7 SFRSYM    DATA     BIT       P17
      000000FDH   SFRSYM    DATA     BYTE      CRCREG
      000000D8H.4 SFRSYM    DATA     BIT       P54
LX51 LINKER/LOCATER V4.66.66.0                                                        09/07/2020  22:21:36  PAGE 86


      000000C0H.5 SFRSYM    DATA     BIT       P45
      000000B0H.6 SFRSYM    DATA     BIT       P36
      000000A0H.7 SFRSYM    DATA     BIT       P27
      000000D8H.5 SFRSYM    DATA     BIT       P55
      000000C0H.6 SFRSYM    DATA     BIT       P46
      000000B0H.7 SFRSYM    DATA     BIT       P37
      000000C0H.7 SFRSYM    DATA     BIT       P47
      000000C8H.6 SFRSYM    DATA     BIT       EXFX
      00000093H   SFRSYM    DATA     BYTE      DDRCON
      000000F6H   SFRSYM    DATA     BYTE      IAPCTL
      000000A9H   SFRSYM    DATA     BYTE      IE1
      000000AAH   SFRSYM    DATA     BYTE      IE2
      000000F0H   SFRSYM    DATA     BYTE      B
      000000B7H   SFRSYM    DATA     BYTE      CMPCON
      000000F1H   SFRSYM    DATA     BYTE      IAPKEY
      000000FBH   SFRSYM    DATA     BYTE      BTMCON
      000000D4H   SFRSYM    DATA     BYTE      PWMCFG
      000000E0H   SFRSYM    DATA     BYTE      ACC
      000000CBH   SFRSYM    DATA     BYTE      RCAPXH
      000000A8H.1 SFRSYM    DATA     BIT       ET0
      000000FCH   SFRSYM    DATA     BYTE      CRCINX
      00000088H.5 SFRSYM    DATA     BIT       TF0
      000000A8H.3 SFRSYM    DATA     BIT       ET1
      000000ABH   SFRSYM    DATA     BYTE      ADCCFG0
      000000B9H   SFRSYM    DATA     BYTE      IP1
      00000088H.7 SFRSYM    DATA     BIT       TF1
      000000A8H.5 SFRSYM    DATA     BIT       ET2
      000000ACH   SFRSYM    DATA     BYTE      ADCCFG1
      000000BAH   SFRSYM    DATA     BYTE      IP2
      00000098H.2 SFRSYM    DATA     BIT       RB8
      000000B5H   SFRSYM    DATA     BYTE      ADCCFG2
      000000CAH   SFRSYM    DATA     BYTE      RCAPXL
      0000008CH   SFRSYM    DATA     BYTE      TH0
      0000008DH   SFRSYM    DATA     BYTE      TH1
      00000098H.3 SFRSYM    DATA     BIT       TB8
      000000D0H   SFRSYM    DATA     BIT       P
      00000098H.7 SFRSYM    DATA     BIT       SM0
      0000008AH   SFRSYM    DATA     BYTE      TL0
      00000098H.6 SFRSYM    DATA     BIT       SM1
      000000CFH   SFRSYM    DATA     BYTE      WDTCON
      0000008BH   SFRSYM    DATA     BYTE      TL1
      00000098H.5 SFRSYM    DATA     BIT       SM2
      000000D5H   SFRSYM    DATA     BYTE      PWMDFR
      000000D0H.3 SFRSYM    DATA     BIT       RS0
      00000088H.4 SFRSYM    DATA     BIT       TR0
      000000D0H.4 SFRSYM    DATA     BIT       RS1
      000000D3H   SFRSYM    DATA     BYTE      PWMCON
      000000D7H   SFRSYM    DATA     BYTE      PWMMOD
      00000088H.6 SFRSYM    DATA     BIT       TR1
      000000B8H.4 SFRSYM    DATA     BIT       IPUART
      000000D6H   SFRSYM    DATA     BYTE      PWMFLT
      00000083H   SFRSYM    DATA     BYTE      DPH
      00000082H   SFRSYM    DATA     BYTE      DPL
      000000A8H   SFRSYM    DATA     BIT       EINT0
      0000009AH   SFRSYM    DATA     BYTE      P0CON
      000000A8H.2 SFRSYM    DATA     BIT       EINT1
      000000B8H.6 SFRSYM    DATA     BIT       IPADC
      000000B4H   SFRSYM    DATA     BYTE      INT0F
      00000091H   SFRSYM    DATA     BYTE      P1CON
      000000BCH   SFRSYM    DATA     BYTE      INT1F
      000000A1H   SFRSYM    DATA     BYTE      P2CON
      000000BEH   SFRSYM    DATA     BYTE      INT2F
      000000B1H   SFRSYM    DATA     BYTE      P3CON
      00000098H.4 SFRSYM    DATA     BIT       REN
      000000C1H   SFRSYM    DATA     BYTE      P4CON
LX51 LINKER/LOCATER V4.66.66.0                                                        09/07/2020  22:21:36  PAGE 87


      000000D9H   SFRSYM    DATA     BYTE      P5CON
      000000AFH   SFRSYM    DATA     BYTE      ADCVH
      00000086H   SFRSYM    DATA     BYTE      DPS
      00000095H   SFRSYM    DATA     BYTE      US0CON0
      000000F7H   SFRSYM    DATA     BYTE      EXADH
      000000A4H   SFRSYM    DATA     BYTE      US1CON0
      0000009DH   SFRSYM    DATA     BYTE      US0CON1
      000000AEH   SFRSYM    DATA     BYTE      ADCVL
      000000C4H   SFRSYM    DATA     BYTE      US2CON0
      000000A5H   SFRSYM    DATA     BYTE      US1CON1
      0000009EH   SFRSYM    DATA     BYTE      US0CON2
      000000C5H   SFRSYM    DATA     BYTE      US2CON1
      000000A6H   SFRSYM    DATA     BYTE      US1CON2
      0000009FH   SFRSYM    DATA     BYTE      US0CON3
      000000C6H   SFRSYM    DATA     BYTE      US2CON2
      000000A7H   SFRSYM    DATA     BYTE      US1CON3
      000000BBH   SFRSYM    DATA     BYTE      INT0R
      000000C7H   SFRSYM    DATA     BYTE      US2CON3
      000000BDH   SFRSYM    DATA     BYTE      INT1R
      000000BFH   SFRSYM    DATA     BYTE      INT2R
      000000C8H.7 SFRSYM    DATA     BIT       TFX
      00000096H   SFRSYM    DATA     BYTE      IOHCON0
      00000097H   SFRSYM    DATA     BYTE      IOHCON1
      000000CDH   SFRSYM    DATA     BYTE      THX
      000000D0H.5 SFRSYM    DATA     BIT       F0
      000000D0H.1 SFRSYM    DATA     BIT       F1
      000000CCH   SFRSYM    DATA     BYTE      TLX
      000000D0H   SFRSYM    DATA     BYTE      PSW

      0100171DH   BLOCK     CODE     ---       LVL=0
      00000007H   SYMBOL    DATA     BYTE      TIM2_PrescalerSelection
      0100171DH   LINE      CODE     ---       #41
      0100171DH   LINE      CODE     ---       #42
      0100171DH   LINE      CODE     ---       #43
      01001720H   LINE      CODE     ---       #44
      01001723H   LINE      CODE     ---       #45
      01001723H   LINE      CODE     ---       #46
      01001726H   LINE      CODE     ---       #47
      01001727H   LINE      CODE     ---       #48
      0100172AH   LINE      CODE     ---       #49
      0100172AH   LINE      CODE     ---       #50
      0100172DH   LINE      CODE     ---       #51
      0100172DH   LINE      CODE     ---       #52
      ---         BLOCKEND  ---      ---       LVL=0

      0100160FH   BLOCK     CODE     ---       LVL=0
      00000007H   SYMBOL    DATA     BYTE      TIM2_CountMode
      00000005H   SYMBOL    DATA     BYTE      TIM2_CountDirection
      0100160FH   LINE      CODE     ---       #62
      0100160FH   LINE      CODE     ---       #63
      0100160FH   LINE      CODE     ---       #64
      01001612H   LINE      CODE     ---       #65
      01001615H   LINE      CODE     ---       #66
      01001615H   LINE      CODE     ---       #67
      01001618H   LINE      CODE     ---       #68
      0100161AH   LINE      CODE     ---       #69
      0100161DH   LINE      CODE     ---       #70
      0100161DH   LINE      CODE     ---       #71
      01001620H   LINE      CODE     ---       #72
      01001620H   LINE      CODE     ---       #74
      01001623H   LINE      CODE     ---       #75
      01001623H   LINE      CODE     ---       #76
      01001626H   LINE      CODE     ---       #77
      01001627H   LINE      CODE     ---       #78
      0100162AH   LINE      CODE     ---       #79
LX51 LINKER/LOCATER V4.66.66.0                                                        09/07/2020  22:21:36  PAGE 88


      0100162AH   LINE      CODE     ---       #80
      0100162DH   LINE      CODE     ---       #81
      0100162DH   LINE      CODE     ---       #82
      ---         BLOCKEND  ---      ---       LVL=0
      00000006H   SYMBOL    DATA     WORD      TIM2_SetCounter

      0100175EH   BLOCK     CODE     ---       LVL=0
      00000006H   SYMBOL    DATA     WORD      TIM2_SetCounter
      0100175EH   LINE      CODE     ---       #105
      0100175EH   LINE      CODE     ---       #106
      0100175EH   LINE      CODE     ---       #107
      01001761H   LINE      CODE     ---       #108
      01001765H   LINE      CODE     ---       #109
      01001767H   LINE      CODE     ---       #111
      0100176AH   LINE      CODE     ---       #112
      0100176DH   LINE      CODE     ---       #113
      ---         BLOCKEND  ---      ---       LVL=0
      00000006H   SYMBOL    DATA     WORD      TIM2_SetCounter
      00000007H   SYMBOL    DATA     BYTE      TIM2_WorkMode
      00000004H   SYMBOL    DATA     WORD      TIM2_SetCounter
      00000007H   SYMBOL    DATA     BYTE      NewState

      010017E8H   BLOCK     CODE     ---       LVL=0
      00000007H   SYMBOL    DATA     BYTE      NewState
      010017E8H   LINE      CODE     ---       #180
      010017E8H   LINE      CODE     ---       #181
      010017E8H   LINE      CODE     ---       #182
      010017EBH   LINE      CODE     ---       #183
      010017EEH   LINE      CODE     ---       #184
      010017EEH   LINE      CODE     ---       #185
      010017F0H   LINE      CODE     ---       #186
      010017F1H   LINE      CODE     ---       #188
      010017F1H   LINE      CODE     ---       #189
      010017F3H   LINE      CODE     ---       #190
      010017F3H   LINE      CODE     ---       #191
      ---         BLOCKEND  ---      ---       LVL=0

      010016E5H   BLOCK     CODE     ---       LVL=0
      00000007H   SYMBOL    DATA     BYTE      NewState
      00000005H   SYMBOL    DATA     BYTE      Priority
      010016E5H   LINE      CODE     ---       #200
      010016E5H   LINE      CODE     ---       #201
      010016E5H   LINE      CODE     ---       #202
      010016E8H   LINE      CODE     ---       #203
      010016EBH   LINE      CODE     ---       #204
      010016EBH   LINE      CODE     ---       #205
      010016EDH   LINE      CODE     ---       #206
      010016EFH   LINE      CODE     ---       #208
      010016EFH   LINE      CODE     ---       #209
      010016F1H   LINE      CODE     ---       #210
      010016F1H   LINE      CODE     ---       #211
      010016F4H   LINE      CODE     ---       #212
      010016F4H   LINE      CODE     ---       #213
      010016F6H   LINE      CODE     ---       #214
      010016F7H   LINE      CODE     ---       #216
      010016F7H   LINE      CODE     ---       #217
      010016F9H   LINE      CODE     ---       #218
      010016F9H   LINE      CODE     ---       #219
      ---         BLOCKEND  ---      ---       LVL=0
      00000007H   SYMBOL    DATA     BYTE      TIM2_Flag
      00000006H   SYMBOL    DATA     BYTE      status
      00000007H   SYMBOL    DATA     BYTE      TIM2_Flag

      ---         MODULE    ---      ---       SC95F8X1X_IAP
      000000C8H.2 SFRSYM    DATA     BIT       TRX
LX51 LINKER/LOCATER V4.66.66.0                                                        09/07/2020  22:21:36  PAGE 89


      000000FFH   SFRSYM    DATA     BYTE      OPREG
      00000080H   SFRSYM    DATA     BYTE      P0
      00000090H   SFRSYM    DATA     BYTE      P1
      000000A0H   SFRSYM    DATA     BYTE      P2
      000000A8H.4 SFRSYM    DATA     BIT       EUART
      0000008EH   SFRSYM    DATA     BYTE      TMCON
      000000B0H   SFRSYM    DATA     BYTE      P3
      000000D0H.6 SFRSYM    DATA     BIT       AC
      000000C0H   SFRSYM    DATA     BYTE      P4
      0000008FH   SFRSYM    DATA     BYTE      OTCON
      000000D8H   SFRSYM    DATA     BYTE      P5
      000000A8H.7 SFRSYM    DATA     BIT       EA
      000000C8H.5 SFRSYM    DATA     BIT       RCLKX
      000000C8H.4 SFRSYM    DATA     BIT       TCLKX
      000000C8H.3 SFRSYM    DATA     BIT       EXENX
      000000A8H.6 SFRSYM    DATA     BIT       EADC
      000000C9H   SFRSYM    DATA     BYTE      TXMOD
      000000C8H   SFRSYM    DATA     BYTE      TXCON
      000000A8H   SFRSYM    DATA     BYTE      IE
      00000085H   SFRSYM    DATA     BYTE      DPH1
      000000E9H   SFRSYM    DATA     BYTE      EXA0
      000000EAH   SFRSYM    DATA     BYTE      EXA1
      000000FEH   SFRSYM    DATA     BYTE      OPINX
      000000EBH   SFRSYM    DATA     BYTE      EXA2
      000000ECH   SFRSYM    DATA     BYTE      EXA3
      00000084H   SFRSYM    DATA     BYTE      DPL1
      000000C8H   SFRSYM    DATA     BIT       CP
      000000EFH   SFRSYM    DATA     BYTE      OPERCON
      0000009BH   SFRSYM    DATA     BYTE      P0PH
      000000B8H   SFRSYM    DATA     BYTE      IP
      00000092H   SFRSYM    DATA     BYTE      P1PH
      00000098H   SFRSYM    DATA     BIT       RI
      000000A2H   SFRSYM    DATA     BYTE      P2PH
      000000D0H.7 SFRSYM    DATA     BIT       CY
      000000B2H   SFRSYM    DATA     BYTE      P3PH
      00000098H.1 SFRSYM    DATA     BIT       TI
      000000CEH   SFRSYM    DATA     BYTE      TXINX
      000000C2H   SFRSYM    DATA     BYTE      P4PH
      000000B8H.1 SFRSYM    DATA     BIT       IPT0
      000000DAH   SFRSYM    DATA     BYTE      P5PH
      000000B8H.3 SFRSYM    DATA     BIT       IPT1
      000000B8H.5 SFRSYM    DATA     BIT       IPT2
      00000081H   SFRSYM    DATA     BYTE      SP
      000000D0H.2 SFRSYM    DATA     BIT       OV
      000000F4H   SFRSYM    DATA     BYTE      IAPADE
      0000009CH   SFRSYM    DATA     BYTE      P0VO
      00000094H   SFRSYM    DATA     BYTE      P1VO
      000000EEH   SFRSYM    DATA     BYTE      EXBH
      000000A3H   SFRSYM    DATA     BYTE      P2VO
      000000F3H   SFRSYM    DATA     BYTE      IAPADH
      000000B3H   SFRSYM    DATA     BYTE      P3VO
      000000ADH   SFRSYM    DATA     BYTE      ADCCON
      000000C8H.1 SFRSYM    DATA     BIT       TX
      000000EDH   SFRSYM    DATA     BYTE      EXBL
      000000F2H   SFRSYM    DATA     BYTE      IAPADL
      00000080H   SFRSYM    DATA     BIT       P00
      00000090H   SFRSYM    DATA     BIT       P10
      00000080H.1 SFRSYM    DATA     BIT       P01
      00000099H   SFRSYM    DATA     BYTE      SBUF
      00000087H   SFRSYM    DATA     BYTE      PCON
      000000A0H   SFRSYM    DATA     BIT       P20
      00000090H.1 SFRSYM    DATA     BIT       P11
      00000080H.2 SFRSYM    DATA     BIT       P02
      000000B6H   SFRSYM    DATA     BYTE      CMPCFG
      000000B0H   SFRSYM    DATA     BIT       P30
LX51 LINKER/LOCATER V4.66.66.0                                                        09/07/2020  22:21:36  PAGE 90


      000000A0H.1 SFRSYM    DATA     BIT       P21
      00000090H.2 SFRSYM    DATA     BIT       P12
      00000080H.3 SFRSYM    DATA     BIT       P03
      000000C0H   SFRSYM    DATA     BIT       P40
      000000B0H.1 SFRSYM    DATA     BIT       P31
      000000A0H.2 SFRSYM    DATA     BIT       P22
      00000090H.3 SFRSYM    DATA     BIT       P13
      00000080H.4 SFRSYM    DATA     BIT       P04
      00000098H   SFRSYM    DATA     BYTE      SCON
      000000D8H   SFRSYM    DATA     BIT       P50
      000000C0H.1 SFRSYM    DATA     BIT       P41
      000000B0H.2 SFRSYM    DATA     BIT       P32
      000000A0H.3 SFRSYM    DATA     BIT       P23
      00000090H.4 SFRSYM    DATA     BIT       P14
      00000080H.5 SFRSYM    DATA     BIT       P05
      000000F5H   SFRSYM    DATA     BYTE      IAPDAT
      00000088H   SFRSYM    DATA     BYTE      TCON
      00000089H   SFRSYM    DATA     BYTE      TMOD
      000000D8H.1 SFRSYM    DATA     BIT       P51
      000000C0H.2 SFRSYM    DATA     BIT       P42
      000000B0H.3 SFRSYM    DATA     BIT       P33
      000000A0H.4 SFRSYM    DATA     BIT       P24
      00000090H.5 SFRSYM    DATA     BIT       P15
      00000080H.6 SFRSYM    DATA     BIT       P06
      000000B8H   SFRSYM    DATA     BIT       IPINT0
      000000D8H.2 SFRSYM    DATA     BIT       P52
      000000C0H.3 SFRSYM    DATA     BIT       P43
      000000B0H.4 SFRSYM    DATA     BIT       P34
      000000A0H.5 SFRSYM    DATA     BIT       P25
      00000090H.6 SFRSYM    DATA     BIT       P16
      00000080H.7 SFRSYM    DATA     BIT       P07
      000000B8H.2 SFRSYM    DATA     BIT       IPINT1
      000000D8H.3 SFRSYM    DATA     BIT       P53
      000000C0H.4 SFRSYM    DATA     BIT       P44
      000000B0H.5 SFRSYM    DATA     BIT       P35
      000000A0H.6 SFRSYM    DATA     BIT       P26
      00000090H.7 SFRSYM    DATA     BIT       P17
      000000FDH   SFRSYM    DATA     BYTE      CRCREG
      000000D8H.4 SFRSYM    DATA     BIT       P54
      000000C0H.5 SFRSYM    DATA     BIT       P45
      000000B0H.6 SFRSYM    DATA     BIT       P36
      000000A0H.7 SFRSYM    DATA     BIT       P27
      000000D8H.5 SFRSYM    DATA     BIT       P55
      000000C0H.6 SFRSYM    DATA     BIT       P46
      000000B0H.7 SFRSYM    DATA     BIT       P37
      000000C0H.7 SFRSYM    DATA     BIT       P47
      000000C8H.6 SFRSYM    DATA     BIT       EXFX
      00000093H   SFRSYM    DATA     BYTE      DDRCON
      000000F6H   SFRSYM    DATA     BYTE      IAPCTL
      000000A9H   SFRSYM    DATA     BYTE      IE1
      000000AAH   SFRSYM    DATA     BYTE      IE2
      000000F0H   SFRSYM    DATA     BYTE      B
      000000B7H   SFRSYM    DATA     BYTE      CMPCON
      000000F1H   SFRSYM    DATA     BYTE      IAPKEY
      000000FBH   SFRSYM    DATA     BYTE      BTMCON
      000000D4H   SFRSYM    DATA     BYTE      PWMCFG
      000000E0H   SFRSYM    DATA     BYTE      ACC
      000000CBH   SFRSYM    DATA     BYTE      RCAPXH
      000000A8H.1 SFRSYM    DATA     BIT       ET0
      000000FCH   SFRSYM    DATA     BYTE      CRCINX
      00000088H.5 SFRSYM    DATA     BIT       TF0
      000000A8H.3 SFRSYM    DATA     BIT       ET1
      000000ABH   SFRSYM    DATA     BYTE      ADCCFG0
      000000B9H   SFRSYM    DATA     BYTE      IP1
      00000088H.7 SFRSYM    DATA     BIT       TF1
LX51 LINKER/LOCATER V4.66.66.0                                                        09/07/2020  22:21:36  PAGE 91


      000000A8H.5 SFRSYM    DATA     BIT       ET2
      000000ACH   SFRSYM    DATA     BYTE      ADCCFG1
      000000BAH   SFRSYM    DATA     BYTE      IP2
      00000098H.2 SFRSYM    DATA     BIT       RB8
      000000B5H   SFRSYM    DATA     BYTE      ADCCFG2
      000000CAH   SFRSYM    DATA     BYTE      RCAPXL
      0000008CH   SFRSYM    DATA     BYTE      TH0
      0000008DH   SFRSYM    DATA     BYTE      TH1
      00000098H.3 SFRSYM    DATA     BIT       TB8
      000000D0H   SFRSYM    DATA     BIT       P
      00000098H.7 SFRSYM    DATA     BIT       SM0
      0000008AH   SFRSYM    DATA     BYTE      TL0
      00000098H.6 SFRSYM    DATA     BIT       SM1
      000000CFH   SFRSYM    DATA     BYTE      WDTCON
      0000008BH   SFRSYM    DATA     BYTE      TL1
      00000098H.5 SFRSYM    DATA     BIT       SM2
      000000D5H   SFRSYM    DATA     BYTE      PWMDFR
      000000D0H.3 SFRSYM    DATA     BIT       RS0
      00000088H.4 SFRSYM    DATA     BIT       TR0
      000000D0H.4 SFRSYM    DATA     BIT       RS1
      000000D3H   SFRSYM    DATA     BYTE      PWMCON
      000000D7H   SFRSYM    DATA     BYTE      PWMMOD
      00000088H.6 SFRSYM    DATA     BIT       TR1
      000000B8H.4 SFRSYM    DATA     BIT       IPUART
      000000D6H   SFRSYM    DATA     BYTE      PWMFLT
      00000083H   SFRSYM    DATA     BYTE      DPH
      00000082H   SFRSYM    DATA     BYTE      DPL
      000000A8H   SFRSYM    DATA     BIT       EINT0
      0000009AH   SFRSYM    DATA     BYTE      P0CON
      000000A8H.2 SFRSYM    DATA     BIT       EINT1
      000000B8H.6 SFRSYM    DATA     BIT       IPADC
      000000B4H   SFRSYM    DATA     BYTE      INT0F
      00000091H   SFRSYM    DATA     BYTE      P1CON
      000000BCH   SFRSYM    DATA     BYTE      INT1F
      000000A1H   SFRSYM    DATA     BYTE      P2CON
      000000BEH   SFRSYM    DATA     BYTE      INT2F
      000000B1H   SFRSYM    DATA     BYTE      P3CON
      00000098H.4 SFRSYM    DATA     BIT       REN
      000000C1H   SFRSYM    DATA     BYTE      P4CON
      000000D9H   SFRSYM    DATA     BYTE      P5CON
      000000AFH   SFRSYM    DATA     BYTE      ADCVH
      00000086H   SFRSYM    DATA     BYTE      DPS
      00000095H   SFRSYM    DATA     BYTE      US0CON0
      000000F7H   SFRSYM    DATA     BYTE      EXADH
      000000A4H   SFRSYM    DATA     BYTE      US1CON0
      0000009DH   SFRSYM    DATA     BYTE      US0CON1
      000000AEH   SFRSYM    DATA     BYTE      ADCVL
      000000C4H   SFRSYM    DATA     BYTE      US2CON0
      000000A5H   SFRSYM    DATA     BYTE      US1CON1
      0000009EH   SFRSYM    DATA     BYTE      US0CON2
      000000C5H   SFRSYM    DATA     BYTE      US2CON1
      000000A6H   SFRSYM    DATA     BYTE      US1CON2
      0000009FH   SFRSYM    DATA     BYTE      US0CON3
      000000C6H   SFRSYM    DATA     BYTE      US2CON2
      000000A7H   SFRSYM    DATA     BYTE      US1CON3
      000000BBH   SFRSYM    DATA     BYTE      INT0R
      000000C7H   SFRSYM    DATA     BYTE      US2CON3
      000000BDH   SFRSYM    DATA     BYTE      INT1R
      000000BFH   SFRSYM    DATA     BYTE      INT2R
      000000C8H.7 SFRSYM    DATA     BIT       TFX
      00000096H   SFRSYM    DATA     BYTE      IOHCON0
      00000097H   SFRSYM    DATA     BYTE      IOHCON1
      000000CDH   SFRSYM    DATA     BYTE      THX
      000000D0H.5 SFRSYM    DATA     BIT       F0
      000000D0H.1 SFRSYM    DATA     BIT       F1
LX51 LINKER/LOCATER V4.66.66.0                                                        09/07/2020  22:21:36  PAGE 92


      000000CCH   SFRSYM    DATA     BYTE      TLX
      000000D0H   SFRSYM    DATA     BYTE      PSW
      00000005H   SYMBOL    DATA     BYTE      Data
      00000003H   SYMBOL    DATA     BYTE      IAP_MemType
      00000004H   SYMBOL    DATA     BYTE      tmpbit
      00000006H   SYMBOL    DATA     WORD      Address
      00000005H   SYMBOL    DATA     BYTE      IAP_MemType
      00000007H   SYMBOL    DATA     BYTE      tmpbyte
      00000004H   SYMBOL    DATA     BYTE      tmpbit
      00000007H   SYMBOL    DATA     BYTE      IAP_MemType
      00000004H   SYMBOL    DATA     WORD      IAP_SectorEraseAddress
      00000003H   SYMBOL    DATA     BYTE      WriteTimeLimit

      ---         MODULE    ---      ---       ?C_STARTUP
      01000000H   PUBLIC    CODE     ---       ?C_STARTUP
      000000E0H   SYMBOL    DATA     ---       ACC
      000000F0H   SYMBOL    DATA     ---       B
      00000083H   SYMBOL    DATA     ---       DPH
      00000082H   SYMBOL    DATA     ---       DPL
      00000000H   SYMBOL    NUMBER   ---       IBPSTACK
      00000100H   SYMBOL    NUMBER   ---       IBPSTACKTOP
      00000100H   SYMBOL    NUMBER   ---       IDATALEN
      01000F29H   SYMBOL    CODE     ---       IDATALOOP
      00000000H   SYMBOL    NUMBER   ---       PBPSTACK
      00000100H   SYMBOL    NUMBER   ---       PBPSTACKTOP
      00000000H   SYMBOL    NUMBER   ---       PDATALEN
      00000000H   SYMBOL    NUMBER   ---       PDATASTART
      00000000H   SYMBOL    NUMBER   ---       PPAGE
      00000000H   SYMBOL    NUMBER   ---       PPAGEENABLE
      000000A0H   SYMBOL    DATA     ---       PPAGE_SFR
      00000081H   SYMBOL    DATA     ---       SP
      01000F26H   SYMBOL    CODE     ---       STARTUP1
      00000000H   SYMBOL    NUMBER   ---       XBPSTACK
      00000000H   SYMBOL    NUMBER   ---       XBPSTACKTOP
      00001000H   SYMBOL    NUMBER   ---       XDATALEN
      01000F34H   SYMBOL    CODE     ---       XDATALOOP
      00000000H   SYMBOL    NUMBER   ---       XDATASTART
      01000000H   LINE      CODE     ---       #126
      01000F26H   LINE      CODE     ---       #133
      01000F28H   LINE      CODE     ---       #134
      01000F29H   LINE      CODE     ---       #135
      01000F2AH   LINE      CODE     ---       #136
      01000F2CH   LINE      CODE     ---       #140
      01000F2FH   LINE      CODE     ---       #141
      01000F31H   LINE      CODE     ---       #145
      01000F33H   LINE      CODE     ---       #147
      01000F34H   LINE      CODE     ---       #148
      01000F35H   LINE      CODE     ---       #149
      01000F36H   LINE      CODE     ---       #150
      01000F38H   LINE      CODE     ---       #151
      01000F3AH   LINE      CODE     ---       #185
      01000F3DH   LINE      CODE     ---       #196

      ---         MODULE    ---      ---       ?C?FPADD
      01000107H   PUBLIC    CODE     ---       ?C?FPADD
      01000103H   PUBLIC    CODE     ---       ?C?FPSUB

      ---         MODULE    ---      ---       ?C?FPMUL
      010001F8H   PUBLIC    CODE     ---       ?C?FPMUL

      ---         MODULE    ---      ---       ?C?FCAST
      01000308H   PUBLIC    CODE     ---       ?C?FCASTC
      01000303H   PUBLIC    CODE     ---       ?C?FCASTI
      010002FEH   PUBLIC    CODE     ---       ?C?FCASTL

LX51 LINKER/LOCATER V4.66.66.0                                                        09/07/2020  22:21:36  PAGE 93


      ---         MODULE    ---      ---       ?C?CASTF
      0100033CH   PUBLIC    CODE     ---       ?C?CASTF

      ---         MODULE    ---      ---       ?C?FPGETOPN
      01000373H   PUBLIC    CODE     ---       ?C?FPGETOPN2
      010003A8H   PUBLIC    CODE     ---       ?C?FPNANRESULT
      010003B2H   PUBLIC    CODE     ---       ?C?FPOVERFLOW
      0100038AH   PUBLIC    CODE     ---       ?C?FPRESULT
      0100039EH   PUBLIC    CODE     ---       ?C?FPRESULT2
      010003AFH   PUBLIC    CODE     ---       ?C?FPUNDERFLOW

      ---         MODULE    ---      ---       ?C_INIT
      01000F7BH   PUBLIC    CODE     ---       ?C_START

      ---         MODULE    ---      ---       ?C?CLDPTR
      010003BDH   PUBLIC    CODE     ---       ?C?CLDPTR

      ---         MODULE    ---      ---       ?C?UIDIV
      010003D6H   PUBLIC    CODE     ---       ?C?UIDIV

      ---         MODULE    ---      ---       ?C?LMUL
      0100042BH   PUBLIC    CODE     ---       ?C?LMUL

      ---         MODULE    ---      ---       ?C?SLDIV
      010012C6H   PUBLIC    CODE     ---       ?C?SLDIV

      ---         MODULE    ---      ---       ?C?LNEG
      0100047AH   PUBLIC    CODE     ---       ?C?LNEG

      ---         MODULE    ---      ---       ?C?ULDIV
      010004C4H   PUBLIC    CODE     ---       ?C?ULDIV

Program Size: data=109.5 xdata=30 const=142 code=6030
LX51 RUN COMPLETE.  0 WARNING(S),  0 ERROR(S)
